---
triple:          'arm64-apple-darwin'
binary-path:     '/Users/aahilmukadam/Airline Sim/Airline-Simulator/index'
relocations:
  - { offsetInCU: 0x3168, offset: 0x3168, size: 0x8, addend: 0x0, symName: __ZNSt3__124__put_character_sequenceB7v160006IcNS_11char_traitsIcEEEERNS_13basic_ostreamIT_T0_EES7_PKS4_m, symObjAddr: 0x3548, symBinAddr: 0x100006850, symSize: 0x1F4 }
  - { offsetInCU: 0x93C2, offset: 0x93C2, size: 0x8, addend: 0x0, symName: __ZNSt3__1lsB7v160006INS_11char_traitsIcEEEERNS_13basic_ostreamIcT_EES6_PKc, symObjAddr: 0xA3C, symBinAddr: 0x100003D44, symSize: 0x48 }
  - { offsetInCU: 0x9408, offset: 0x9408, size: 0x8, addend: 0x0, symName: __ZNSt3__14endlB7v160006IcNS_11char_traitsIcEEEERNS_13basic_ostreamIT_T0_EES7_, symObjAddr: 0xAB0, symBinAddr: 0x100003DB8, symSize: 0x58 }
  - { offsetInCU: 0x9448, offset: 0x9448, size: 0x8, addend: 0x0, symName: __ZNSt3__17getlineB7v160006IcNS_11char_traitsIcEENS_9allocatorIcEEEERNS_13basic_istreamIT_T0_EES9_RNS_12basic_stringIS6_S7_T1_EE, symObjAddr: 0xB08, symBinAddr: 0x100003E10, symSize: 0x5C }
  - { offsetInCU: 0x9890, offset: 0x9890, size: 0x8, addend: 0x0, symName: __ZNSt3__17getlineB7v160006IcNS_11char_traitsIcEENS_9allocatorIcEEEERNS_13basic_istreamIT_T0_EES9_RNS_12basic_stringIS6_S7_T1_EES6_, symObjAddr: 0xCCC, symBinAddr: 0x100003FD4, symSize: 0x238 }
  - { offsetInCU: 0x994E, offset: 0x994E, size: 0x8, addend: 0x0, symName: __ZNSt3__19make_pairB7v160006IRNS_12basic_stringIcNS_11char_traitsIcEENS_9allocatorIcEEEENS_4pairIffEEEENS8_INS_18__unwrap_ref_decayIT_E4typeENSA_IT0_E4typeEEEOSB_OSE_, symObjAddr: 0xF50, symBinAddr: 0x100004258, symSize: 0x40 }
  - { offsetInCU: 0x999D, offset: 0x999D, size: 0x8, addend: 0x0, symName: __ZNSt3__19make_pairB7v160006IRfS1_EENS_4pairINS_18__unwrap_ref_decayIT_E4typeENS3_IT0_E4typeEEEOS4_OS7_, symObjAddr: 0xF90, symBinAddr: 0x100004298, symSize: 0x38 }
  - { offsetInCU: 0x9ABA, offset: 0x9ABA, size: 0x8, addend: 0x0, symName: __ZNSt3__1neB7v160006ERKNS_19__hash_map_iteratorINS_15__hash_iteratorIPNS_11__hash_nodeINS_17__hash_value_typeINS_12basic_stringIcNS_11char_traitsIcEENS_9allocatorIcEEEENS_4pairIffEEEEPvEEEEEESJ_, symObjAddr: 0x12F0, symBinAddr: 0x1000045F8, symSize: 0x30 }
  - { offsetInCU: 0x9AF7, offset: 0x9AF7, size: 0x8, addend: 0x0, symName: __ZNSt3__1lsB7v160006IcNS_11char_traitsIcEENS_9allocatorIcEEEERNS_13basic_ostreamIT_T0_EES9_RKNS_12basic_stringIS6_S7_T1_EE, symObjAddr: 0x1348, symBinAddr: 0x100004650, symSize: 0x4C }
  - { offsetInCU: 0x9B4F, offset: 0x9B4F, size: 0x8, addend: 0x0, symName: __ZNSt3__1rsB7v160006IcNS_11char_traitsIcEENS_9allocatorIcEEEERNS_13basic_istreamIT_T0_EES9_RNS_12basic_stringIS6_S7_T1_EE, symObjAddr: 0x181C, symBinAddr: 0x100004B24, symSize: 0x310 }
  - { offsetInCU: 0x9C1C, offset: 0x9C1C, size: 0x8, addend: 0x0, symName: __ZNSt3__119__debug_db_insert_cB7v160006INS_12basic_stringIcNS_11char_traitsIcEENS_9allocatorIcEEEEEEvPT_, symObjAddr: 0x20CC, symBinAddr: 0x1000053D4, symSize: 0x10 }
  - { offsetInCU: 0x9C4D, offset: 0x9C4D, size: 0x8, addend: 0x0, symName: __ZNSt3__130__libcpp_is_constant_evaluatedB7v160006Ev, symObjAddr: 0x226C, symBinAddr: 0x100005574, symSize: 0xC }
  - { offsetInCU: 0x9C6A, offset: 0x9C6A, size: 0x8, addend: 0x0, symName: __ZNSt3__117__libcpp_allocateB7v160006Emm, symObjAddr: 0x2564, symBinAddr: 0x10000586C, symSize: 0x28 }
  - { offsetInCU: 0x9CA7, offset: 0x9CA7, size: 0x8, addend: 0x0, symName: __ZNSt3__121__libcpp_operator_newB7v160006IJmEEEPvDpT_, symObjAddr: 0x25A0, symBinAddr: 0x1000058A8, symSize: 0x24 }
  - { offsetInCU: 0x9CE0, offset: 0x9CE0, size: 0x8, addend: 0x0, symName: __ZNSt3__119__debug_db_insert_cB7v160006INS_13unordered_mapINS_12basic_stringIcNS_11char_traitsIcEENS_9allocatorIcEEEENS_4pairIffEENS_4hashIS7_EENS_8equal_toIS7_EENS5_INS8_IKS7_S9_EEEEEEEEvPT_, symObjAddr: 0x268C, symBinAddr: 0x100005994, symSize: 0x10 }
  - { offsetInCU: 0x9D11, offset: 0x9D11, size: 0x8, addend: 0x0, symName: __ZNSt3__119__libcpp_deallocateB7v160006EPvmm, symObjAddr: 0x2F70, symBinAddr: 0x100006278, symSize: 0x30 }
  - { offsetInCU: 0x9D59, offset: 0x9D59, size: 0x8, addend: 0x0, symName: __ZNSt3__127__do_deallocate_handle_sizeB7v160006IJEEEvPvmDpT_, symObjAddr: 0x2FA0, symBinAddr: 0x1000062A8, symSize: 0x28 }
  - { offsetInCU: 0x9D97, offset: 0x9D97, size: 0x8, addend: 0x0, symName: __ZNSt3__124__libcpp_operator_deleteB7v160006IJPvEEEvDpT_, symObjAddr: 0x2FC8, symBinAddr: 0x1000062D0, symSize: 0x24 }
  - { offsetInCU: 0x9DCC, offset: 0x9DCC, size: 0x8, addend: 0x0, symName: __ZNSt3__118__debug_db_erase_cB7v160006INS_12__hash_tableINS_17__hash_value_typeINS_12basic_stringIcNS_11char_traitsIcEENS_9allocatorIcEEEENS_4pairIffEEEENS_22__unordered_map_hasherIS8_SB_NS_4hashIS8_EENS_8equal_toIS8_EELb1EEENS_21__unordered_map_equalIS8_SB_SG_SE_Lb1EEENS6_ISB_EEEEEEvPT_, symObjAddr: 0x31BC, symBinAddr: 0x1000064C4, symSize: 0x10 }
  - { offsetInCU: 0x9E30, offset: 0x9E30, size: 0x8, addend: 0x0, symName: __ZNSt3__116__pad_and_outputB7v160006IcNS_11char_traitsIcEEEENS_19ostreambuf_iteratorIT_T0_EES6_PKS4_S8_S8_RNS_8ios_baseES4_, symObjAddr: 0x37A0, symBinAddr: 0x100006AA8, symSize: 0x248 }
  - { offsetInCU: 0x9EFF, offset: 0x9EFF, size: 0x8, addend: 0x0, symName: __ZNSt3__112__to_addressB7v160006IKcEEPT_S3_, symObjAddr: 0x3BF4, symBinAddr: 0x100006EFC, symSize: 0x14 }
  - { offsetInCU: 0x9F67, offset: 0x9F67, size: 0x8, addend: 0x0, symName: __ZNSt3__19use_facetB7v160006INS_5ctypeIcEEEERKT_RKNS_6localeE, symObjAddr: 0x3EC4, symBinAddr: 0x1000071CC, symSize: 0x2C }
  - { offsetInCU: 0xA347, offset: 0xA347, size: 0x8, addend: 0x0, symName: __ZNSt3__118__constexpr_strlenB7v160006EPKc, symObjAddr: 0x3F28, symBinAddr: 0x100007230, symSize: 0x24 }
  - { offsetInCU: 0xA373, offset: 0xA373, size: 0x8, addend: 0x0, symName: __ZNSt3__125__debug_db_invalidate_allB7v160006INS_12basic_stringIcNS_11char_traitsIcEENS_9allocatorIcEEEEEEvPT_, symObjAddr: 0x4620, symBinAddr: 0x100007928, symSize: 0x10 }
  - { offsetInCU: 0xA3D7, offset: 0xA3D7, size: 0x8, addend: 0x0, symName: __ZNSt3__116__constrain_hashB7v160006Emm, symObjAddr: 0x4EA0, symBinAddr: 0x1000081A8, symSize: 0x98 }
  - { offsetInCU: 0xA411, offset: 0xA411, size: 0x8, addend: 0x0, symName: __ZNSt3__13maxB7v160006ImEERKT_S3_S3_, symObjAddr: 0x51B8, symBinAddr: 0x1000084C0, symSize: 0x2C }
  - { offsetInCU: 0xA454, offset: 0xA454, size: 0x8, addend: 0x0, symName: __ZNSt3__116__is_hash_power2B7v160006Em, symObjAddr: 0x51E4, symBinAddr: 0x1000084EC, symSize: 0x50 }
  - { offsetInCU: 0xA480, offset: 0xA480, size: 0x8, addend: 0x0, symName: __ZNSt3__116__do_string_hashB7v160006IPKcEEmT_S3_, symObjAddr: 0x5458, symBinAddr: 0x100008760, symSize: 0x3C }
  - { offsetInCU: 0xA4C6, offset: 0xA4C6, size: 0x8, addend: 0x0, symName: __ZNSt3__110__loadwordB7v160006ImEET_PKv, symObjAddr: 0x5E4C, symBinAddr: 0x100009154, symSize: 0x20 }
  - { offsetInCU: 0xA509, offset: 0xA509, size: 0x8, addend: 0x0, symName: __ZNSt3__14swapB7v160006ImEEvRT_S2_, symObjAddr: 0x6008, symBinAddr: 0x100009310, symSize: 0x3C }
  - { offsetInCU: 0xA55A, offset: 0xA55A, size: 0x8, addend: 0x0, symName: __ZNSt3__110__loadwordB7v160006IjEET_PKv, symObjAddr: 0x6098, symBinAddr: 0x1000093A0, symSize: 0x20 }
  - { offsetInCU: 0xA59D, offset: 0xA59D, size: 0x8, addend: 0x0, symName: __ZNSt3__1eqB7v160006INS_9allocatorIcEEEEbRKNS_12basic_stringIcNS_11char_traitsIcEET_EES9_, symObjAddr: 0x6378, symBinAddr: 0x100009680, symSize: 0x148 }
  - { offsetInCU: 0xA610, offset: 0xA610, size: 0x8, addend: 0x0, symName: __ZNSt3__118__constexpr_memcmpB7v160006IcEEiPKT_S3_m, symObjAddr: 0x6540, symBinAddr: 0x100009848, symSize: 0x34 }
  - { offsetInCU: 0xA67F, offset: 0xA67F, size: 0x8, addend: 0x0, symName: __ZNSt3__116__next_hash_pow2B7v160006Em, symObjAddr: 0x6E18, symBinAddr: 0x10000A120, symSize: 0x6C }
  - { offsetInCU: 0xA6AB, offset: 0xA6AB, size: 0x8, addend: 0x0, symName: __ZNSt3__125__debug_db_invalidate_allB7v160006INS_12__hash_tableINS_17__hash_value_typeINS_12basic_stringIcNS_11char_traitsIcEENS_9allocatorIcEEEENS_4pairIffEEEENS_22__unordered_map_hasherIS8_SB_NS_4hashIS8_EENS_8equal_toIS8_EELb1EEENS_21__unordered_map_equalIS8_SB_SG_SE_Lb1EEENS6_ISB_EEEEEEvPT_, symObjAddr: 0x6E84, symBinAddr: 0x10000A18C, symSize: 0x10 }
  - { offsetInCU: 0xA6F8, offset: 0xA6F8, size: 0x8, addend: 0x0, symName: __ZNSt3__112__libcpp_clzB7v160006Em, symObjAddr: 0x7018, symBinAddr: 0x10000A320, symSize: 0x1C }
  - { offsetInCU: 0xA724, offset: 0xA724, size: 0x8, addend: 0x0, symName: __ZNSt3__13maxB7v160006ImNS_6__lessImmEEEERKT_S5_S5_T0_, symObjAddr: 0x7034, symBinAddr: 0x10000A33C, symSize: 0x54 }
  - { offsetInCU: 0xA7B9, offset: 0xA7B9, size: 0x8, addend: 0x0, symName: __ZNSt3__1neB7v160006ERKNS_15__hash_iteratorIPNS_11__hash_nodeINS_17__hash_value_typeINS_12basic_stringIcNS_11char_traitsIcEENS_9allocatorIcEEEENS_4pairIffEEEEPvEEEESH_, symObjAddr: 0x7430, symBinAddr: 0x10000A738, symSize: 0x34 }
  - { offsetInCU: 0xA7F6, offset: 0xA7F6, size: 0x8, addend: 0x0, symName: __ZNSt3__1eqB7v160006ERKNS_15__hash_iteratorIPNS_11__hash_nodeINS_17__hash_value_typeINS_12basic_stringIcNS_11char_traitsIcEENS_9allocatorIcEEEENS_4pairIffEEEEPvEEEESH_, symObjAddr: 0x7464, symBinAddr: 0x10000A76C, symSize: 0x30 }
  - { offsetInCU: 0xAA9A, offset: 0xAA9A, size: 0x8, addend: 0x0, symName: __ZNSt3__1neB7v160006ERKNS_25__hash_map_const_iteratorINS_21__hash_const_iteratorIPNS_11__hash_nodeINS_17__hash_value_typeINS_12basic_stringIcNS_11char_traitsIcEENS_9allocatorIcEEEENS_4pairIffEEEEPvEEEEEESJ_, symObjAddr: 0x7AFC, symBinAddr: 0x10000AE04, symSize: 0x30 }
  - { offsetInCU: 0xAAD7, offset: 0xAAD7, size: 0x8, addend: 0x0, symName: __ZNSt3__1neB7v160006ERKNS_21__hash_const_iteratorIPNS_11__hash_nodeINS_17__hash_value_typeINS_12basic_stringIcNS_11char_traitsIcEENS_9allocatorIcEEEENS_4pairIffEEEEPvEEEESH_, symObjAddr: 0x7B80, symBinAddr: 0x10000AE88, symSize: 0x34 }
  - { offsetInCU: 0xAB14, offset: 0xAB14, size: 0x8, addend: 0x0, symName: __ZNSt3__1eqB7v160006ERKNS_21__hash_const_iteratorIPNS_11__hash_nodeINS_17__hash_value_typeINS_12basic_stringIcNS_11char_traitsIcEENS_9allocatorIcEEEENS_4pairIffEEEEPvEEEESH_, symObjAddr: 0x7BB4, symBinAddr: 0x10000AEBC, symSize: 0x30 }
  - { offsetInCU: 0xABB9, offset: 0xABB9, size: 0x8, addend: 0x0, symName: __ZSt28__throw_bad_array_new_lengthB7v160006v, symObjAddr: 0x2530, symBinAddr: 0x100005838, symSize: 0x34 }
  - { offsetInCU: 0xB44C, offset: 0xB44C, size: 0x8, addend: 0x0, symName: __Z3powB7v160006IdiENSt3__19enable_ifIXaasr3std13is_arithmeticIT_EE5valuesr3std13is_arithmeticIT0_EE5valueENS0_9__promoteIS2_S3_vEEE4type4typeES2_S3_, symObjAddr: 0x1B98, symBinAddr: 0x100004EA0, symSize: 0x38 }
  - { offsetInCU: 0xD60A, offset: 0xD60A, size: 0x8, addend: 0x0, symName: __Z11AirportListv, symObjAddr: 0x0, symBinAddr: 0x100003308, symSize: 0x83C }
  - { offsetInCU: 0xD847, offset: 0xD847, size: 0x8, addend: 0x0, symName: __ZNSt3__113unordered_mapINS_12basic_stringIcNS_11char_traitsIcEENS_9allocatorIcEEEENS_4pairIffEENS_4hashIS6_EENS_8equal_toIS6_EENS4_INS7_IKS6_S8_EEEEEC1B7v160006Ev, symObjAddr: 0x83C, symBinAddr: 0x100003B44, symSize: 0x2C }
  - { offsetInCU: 0xD871, offset: 0xD871, size: 0x8, addend: 0x0, symName: __ZNSt3__112basic_stringIcNS_11char_traitsIcEENS_9allocatorIcEEEC1B7v160006Ev, symObjAddr: 0x868, symBinAddr: 0x100003B70, symSize: 0x2C }
  - { offsetInCU: 0xD9B2, offset: 0xD9B2, size: 0x8, addend: 0x0, symName: __ZNSt3__114basic_ifstreamIcNS_11char_traitsIcEEEC1EPKcj, symObjAddr: 0x894, symBinAddr: 0x100003B9C, symSize: 0x17C }
  - { offsetInCU: 0xD9FC, offset: 0xD9FC, size: 0x8, addend: 0x0, symName: __ZNKSt3__114basic_ifstreamIcNS_11char_traitsIcEEE7is_openEv, symObjAddr: 0xA10, symBinAddr: 0x100003D18, symSize: 0x2C }
  - { offsetInCU: 0xDA24, offset: 0xDA24, size: 0x8, addend: 0x0, symName: __ZNSt3__113basic_ostreamIcNS_11char_traitsIcEEElsB7v160006EPFRS3_S4_E, symObjAddr: 0xA84, symBinAddr: 0x100003D8C, symSize: 0x2C }
  - { offsetInCU: 0xDA58, offset: 0xDA58, size: 0x8, addend: 0x0, symName: __ZNKSt3__19basic_iosIcNS_11char_traitsIcEEEcvPvB7v160006Ev, symObjAddr: 0xB64, symBinAddr: 0x100003E6C, symSize: 0x4C }
  - { offsetInCU: 0xDADD, offset: 0xDADD, size: 0x8, addend: 0x0, symName: __ZNSt3__118basic_stringstreamIcNS_11char_traitsIcEENS_9allocatorIcEEEC1B7v160006ERKNS_12basic_stringIcS2_S4_EEj, symObjAddr: 0xBB0, symBinAddr: 0x100003EB8, symSize: 0x11C }
  - { offsetInCU: 0xDB25, offset: 0xDB25, size: 0x8, addend: 0x0, symName: __ZNSt3__113unordered_mapINS_12basic_stringIcNS_11char_traitsIcEENS_9allocatorIcEEEENS_4pairIffEENS_4hashIS6_EENS_8equal_toIS6_EENS4_INS7_IKS6_S8_EEEEE6insertB7v160006ERKSE_, symObjAddr: 0xF04, symBinAddr: 0x10000420C, symSize: 0x4C }
  - { offsetInCU: 0xDB73, offset: 0xDB73, size: 0x8, addend: 0x0, symName: __ZNSt3__14pairIKNS_12basic_stringIcNS_11char_traitsIcEENS_9allocatorIcEEEENS0_IffEEEC1B7v160006IS6_S8_EERKNS0_IT_T0_EE, symObjAddr: 0xFC8, symBinAddr: 0x1000042D0, symSize: 0x34 }
  - { offsetInCU: 0xDBBD, offset: 0xDBBD, size: 0x8, addend: 0x0, symName: __ZNSt3__14pairIKNS_12basic_stringIcNS_11char_traitsIcEENS_9allocatorIcEEEENS0_IffEEED1Ev, symObjAddr: 0xFFC, symBinAddr: 0x100004304, symSize: 0x2C }
  - { offsetInCU: 0xDBE9, offset: 0xDBE9, size: 0x8, addend: 0x0, symName: __ZNSt3__14pairINS_12basic_stringIcNS_11char_traitsIcEENS_9allocatorIcEEEENS0_IffEEED1Ev, symObjAddr: 0x1034, symBinAddr: 0x10000433C, symSize: 0x2C }
  - { offsetInCU: 0xDC1A, offset: 0xDC1A, size: 0x8, addend: 0x0, symName: __ZNSt3__118basic_stringstreamIcNS_11char_traitsIcEENS_9allocatorIcEEED1Ev, symObjAddr: 0x1060, symBinAddr: 0x100004368, symSize: 0x70 }
  - { offsetInCU: 0xDC47, offset: 0xDC47, size: 0x8, addend: 0x0, symName: __ZNSt3__114basic_ifstreamIcNS_11char_traitsIcEEE5closeEv, symObjAddr: 0x10D0, symBinAddr: 0x1000043D8, symSize: 0x58 }
  - { offsetInCU: 0xDC74, offset: 0xDC74, size: 0x8, addend: 0x0, symName: __ZNSt3__114basic_ifstreamIcNS_11char_traitsIcEEED1Ev, symObjAddr: 0x1128, symBinAddr: 0x100004430, symSize: 0x70 }
  - { offsetInCU: 0xDCA1, offset: 0xDCA1, size: 0x8, addend: 0x0, symName: __ZNSt3__113unordered_mapINS_12basic_stringIcNS_11char_traitsIcEENS_9allocatorIcEEEENS_4pairIffEENS_4hashIS6_EENS_8equal_toIS6_EENS4_INS7_IKS6_S8_EEEEED1B7v160006Ev, symObjAddr: 0x1198, symBinAddr: 0x1000044A0, symSize: 0x2C }
  - { offsetInCU: 0xDCCB, offset: 0xDCCB, size: 0x8, addend: 0x0, symName: __Z9PrintListRNSt3__113unordered_mapINS_12basic_stringIcNS_11char_traitsIcEENS_9allocatorIcEEEENS_4pairIffEENS_4hashIS6_EENS_8equal_toIS6_EENS4_INS7_IKS6_S8_EEEEEE, symObjAddr: 0x11C4, symBinAddr: 0x1000044CC, symSize: 0xBC }
  - { offsetInCU: 0xDD47, offset: 0xDD47, size: 0x8, addend: 0x0, symName: __ZNSt3__113unordered_mapINS_12basic_stringIcNS_11char_traitsIcEENS_9allocatorIcEEEENS_4pairIffEENS_4hashIS6_EENS_8equal_toIS6_EENS4_INS7_IKS6_S8_EEEEE5beginB7v160006Ev, symObjAddr: 0x1280, symBinAddr: 0x100004588, symSize: 0x38 }
  - { offsetInCU: 0xDD6D, offset: 0xDD6D, size: 0x8, addend: 0x0, symName: __ZNSt3__113unordered_mapINS_12basic_stringIcNS_11char_traitsIcEENS_9allocatorIcEEEENS_4pairIffEENS_4hashIS6_EENS_8equal_toIS6_EENS4_INS7_IKS6_S8_EEEEE3endB7v160006Ev, symObjAddr: 0x12B8, symBinAddr: 0x1000045C0, symSize: 0x38 }
  - { offsetInCU: 0xDD93, offset: 0xDD93, size: 0x8, addend: 0x0, symName: __ZNKSt3__119__hash_map_iteratorINS_15__hash_iteratorIPNS_11__hash_nodeINS_17__hash_value_typeINS_12basic_stringIcNS_11char_traitsIcEENS_9allocatorIcEEEENS_4pairIffEEEEPvEEEEEdeB7v160006Ev, symObjAddr: 0x1320, symBinAddr: 0x100004628, symSize: 0x28 }
  - { offsetInCU: 0xDDB9, offset: 0xDDB9, size: 0x8, addend: 0x0, symName: __ZNSt3__119__hash_map_iteratorINS_15__hash_iteratorIPNS_11__hash_nodeINS_17__hash_value_typeINS_12basic_stringIcNS_11char_traitsIcEENS_9allocatorIcEEEENS_4pairIffEEEEPvEEEEEppB7v160006Ev, symObjAddr: 0x1394, symBinAddr: 0x10000469C, symSize: 0x2C }
  - { offsetInCU: 0xDDDE, offset: 0xDDDE, size: 0x8, addend: 0x0, symName: __Z7deg2radf, symObjAddr: 0x13C0, symBinAddr: 0x1000046C8, symSize: 0x34 }
  - { offsetInCU: 0xDE0A, offset: 0xDE0A, size: 0x8, addend: 0x0, symName: __Z9CoordDistRNSt3__113unordered_mapINS_12basic_stringIcNS_11char_traitsIcEENS_9allocatorIcEEEENS_4pairIffEENS_4hashIS6_EENS_8equal_toIS6_EENS4_INS7_IKS6_S8_EEEEEE, symObjAddr: 0x13F4, symBinAddr: 0x1000046FC, symSize: 0x428 }
  - { offsetInCU: 0xDF08, offset: 0xDF08, size: 0x8, addend: 0x0, symName: __ZNSt3__113unordered_mapINS_12basic_stringIcNS_11char_traitsIcEENS_9allocatorIcEEEENS_4pairIffEENS_4hashIS6_EENS_8equal_toIS6_EENS4_INS7_IKS6_S8_EEEEE4findB7v160006ERSD_, symObjAddr: 0x1B2C, symBinAddr: 0x100004E34, symSize: 0x40 }
  - { offsetInCU: 0xDF3D, offset: 0xDF3D, size: 0x8, addend: 0x0, symName: __ZNKSt3__119__hash_map_iteratorINS_15__hash_iteratorIPNS_11__hash_nodeINS_17__hash_value_typeINS_12basic_stringIcNS_11char_traitsIcEENS_9allocatorIcEEEENS_4pairIffEEEEPvEEEEEptB7v160006Ev, symObjAddr: 0x1B6C, symBinAddr: 0x100004E74, symSize: 0x2C }
  - { offsetInCU: 0xDF62, offset: 0xDF62, size: 0x8, addend: 0x0, symName: __Z3cosB7v160006f, symObjAddr: 0x1BD0, symBinAddr: 0x100004ED8, symSize: 0x24 }
  - { offsetInCU: 0xDF90, offset: 0xDF90, size: 0x8, addend: 0x0, symName: __Z5atan2B7v160006ff, symObjAddr: 0x1BF4, symBinAddr: 0x100004EFC, symSize: 0x2C }
  - { offsetInCU: 0xDFCD, offset: 0xDFCD, size: 0x8, addend: 0x0, symName: __Z4sqrtB7v160006f, symObjAddr: 0x1C20, symBinAddr: 0x100004F28, symSize: 0x18 }
  - { offsetInCU: 0xDFFC, offset: 0xDFFC, size: 0x8, addend: 0x0, symName: _main, symObjAddr: 0x1C38, symBinAddr: 0x100004F40, symSize: 0xA8 }
  - { offsetInCU: 0xE025, offset: 0xE025, size: 0x8, addend: 0x0, symName: __ZNSt3__113unordered_mapINS_12basic_stringIcNS_11char_traitsIcEENS_9allocatorIcEEEENS_4pairIffEENS_4hashIS6_EENS_8equal_toIS6_EENS4_INS7_IKS6_S8_EEEEEaSB7v160006ERKSG_, symObjAddr: 0x1CE0, symBinAddr: 0x100004FE8, symSize: 0xC4 }
  - { offsetInCU: 0xE05A, offset: 0xE05A, size: 0x8, addend: 0x0, symName: __ZNSt3__14pairIKNS_12basic_stringIcNS_11char_traitsIcEENS_9allocatorIcEEEENS0_IffEEED2Ev, symObjAddr: 0x1DA4, symBinAddr: 0x1000050AC, symSize: 0x2C }
  - { offsetInCU: 0xE086, offset: 0xE086, size: 0x8, addend: 0x0, symName: __ZNSt3__14pairINS_12basic_stringIcNS_11char_traitsIcEENS_9allocatorIcEEEENS0_IffEEED2Ev, symObjAddr: 0x1DD0, symBinAddr: 0x1000050D8, symSize: 0x2C }
  - { offsetInCU: 0xE0B2, offset: 0xE0B2, size: 0x8, addend: 0x0, symName: __ZNSt3__118basic_stringstreamIcNS_11char_traitsIcEENS_9allocatorIcEEED2Ev, symObjAddr: 0x1DFC, symBinAddr: 0x100005104, symSize: 0xA4 }
  - { offsetInCU: 0xE0EC, offset: 0xE0EC, size: 0x8, addend: 0x0, symName: __ZThn16_NSt3__118basic_stringstreamIcNS_11char_traitsIcEENS_9allocatorIcEEED1Ev, symObjAddr: 0x1EA0, symBinAddr: 0x1000051A8, symSize: 0x1C }
  - { offsetInCU: 0xE103, offset: 0xE103, size: 0x8, addend: 0x0, symName: __ZTv0_n24_NSt3__118basic_stringstreamIcNS_11char_traitsIcEENS_9allocatorIcEEED1Ev, symObjAddr: 0x1EBC, symBinAddr: 0x1000051C4, symSize: 0x28 }
  - { offsetInCU: 0xE11F, offset: 0xE11F, size: 0x8, addend: 0x0, symName: __ZNSt3__115basic_stringbufIcNS_11char_traitsIcEENS_9allocatorIcEEED1Ev, symObjAddr: 0x1EE4, symBinAddr: 0x1000051EC, symSize: 0x2C }
  - { offsetInCU: 0xE14C, offset: 0xE14C, size: 0x8, addend: 0x0, symName: __ZNSt3__115basic_stringbufIcNS_11char_traitsIcEENS_9allocatorIcEEED2Ev, symObjAddr: 0x1F10, symBinAddr: 0x100005218, symSize: 0x78 }
  - { offsetInCU: 0xE179, offset: 0xE179, size: 0x8, addend: 0x0, symName: __ZNSt3__114basic_ifstreamIcNS_11char_traitsIcEEED2Ev, symObjAddr: 0x1F88, symBinAddr: 0x100005290, symSize: 0x9C }
  - { offsetInCU: 0xE1B3, offset: 0xE1B3, size: 0x8, addend: 0x0, symName: __ZTv0_n24_NSt3__114basic_ifstreamIcNS_11char_traitsIcEEED1Ev, symObjAddr: 0x2024, symBinAddr: 0x10000532C, symSize: 0x28 }
  - { offsetInCU: 0xE1CA, offset: 0xE1CA, size: 0x8, addend: 0x0, symName: __ZNSt3__112basic_stringIcNS_11char_traitsIcEENS_9allocatorIcEEEC2B7v160006Ev, symObjAddr: 0x204C, symBinAddr: 0x100005354, symSize: 0x44 }
  - { offsetInCU: 0xE1F9, offset: 0xE1F9, size: 0x8, addend: 0x0, symName: __ZNSt3__117__compressed_pairINS_12basic_stringIcNS_11char_traitsIcEENS_9allocatorIcEEE5__repES5_EC1B7v160006INS_18__default_init_tagESA_EEOT_OT0_, symObjAddr: 0x2090, symBinAddr: 0x100005398, symSize: 0x3C }
  - { offsetInCU: 0xE251, offset: 0xE251, size: 0x8, addend: 0x0, symName: __ZNSt3__112basic_stringIcNS_11char_traitsIcEENS_9allocatorIcEEE14__default_initB7v160006Ev, symObjAddr: 0x20DC, symBinAddr: 0x1000053E4, symSize: 0xB0 }
  - { offsetInCU: 0xE2A4, offset: 0xE2A4, size: 0x8, addend: 0x0, symName: __ZNSt3__117__compressed_pairINS_12basic_stringIcNS_11char_traitsIcEENS_9allocatorIcEEE5__repES5_EC2B7v160006INS_18__default_init_tagESA_EEOT_OT0_, symObjAddr: 0x218C, symBinAddr: 0x100005494, symSize: 0x3C }
  - { offsetInCU: 0xE2FC, offset: 0xE2FC, size: 0x8, addend: 0x0, symName: __ZNSt3__122__compressed_pair_elemINS_12basic_stringIcNS_11char_traitsIcEENS_9allocatorIcEEE5__repELi0ELb0EEC2B7v160006ENS_18__default_init_tagE, symObjAddr: 0x21C8, symBinAddr: 0x1000054D0, symSize: 0x14 }
  - { offsetInCU: 0xE331, offset: 0xE331, size: 0x8, addend: 0x0, symName: __ZNSt3__122__compressed_pair_elemINS_9allocatorIcEELi1ELb1EEC2B7v160006ENS_18__default_init_tagE, symObjAddr: 0x21DC, symBinAddr: 0x1000054E4, symSize: 0x2C }
  - { offsetInCU: 0xE366, offset: 0xE366, size: 0x8, addend: 0x0, symName: __ZNSt3__19allocatorIcEC2B7v160006Ev, symObjAddr: 0x2208, symBinAddr: 0x100005510, symSize: 0x2C }
  - { offsetInCU: 0xE390, offset: 0xE390, size: 0x8, addend: 0x0, symName: __ZNSt3__116__non_trivial_ifILb1ENS_9allocatorIcEEEC2B7v160006Ev, symObjAddr: 0x2234, symBinAddr: 0x10000553C, symSize: 0x14 }
  - { offsetInCU: 0xE3BA, offset: 0xE3BA, size: 0x8, addend: 0x0, symName: __ZNSt3__117__compressed_pairINS_12basic_stringIcNS_11char_traitsIcEENS_9allocatorIcEEE5__repES5_E5firstB7v160006Ev, symObjAddr: 0x2248, symBinAddr: 0x100005550, symSize: 0x24 }
  - { offsetInCU: 0xE3E0, offset: 0xE3E0, size: 0x8, addend: 0x0, symName: __ZNSt3__112basic_stringIcNS_11char_traitsIcEENS_9allocatorIcEEE11__recommendB7v160006Em, symObjAddr: 0x2278, symBinAddr: 0x100005580, symSize: 0x9C }
  - { offsetInCU: 0xE413, offset: 0xE413, size: 0x8, addend: 0x0, symName: __ZNSt3__116allocator_traitsINS_9allocatorIcEEE8allocateB7v160006ERS2_m, symObjAddr: 0x2314, symBinAddr: 0x10000561C, symSize: 0x2C }
  - { offsetInCU: 0xE446, offset: 0xE446, size: 0x8, addend: 0x0, symName: __ZNSt3__112basic_stringIcNS_11char_traitsIcEENS_9allocatorIcEEE7__allocB7v160006Ev, symObjAddr: 0x2340, symBinAddr: 0x100005648, symSize: 0x24 }
  - { offsetInCU: 0xE46C, offset: 0xE46C, size: 0x8, addend: 0x0, symName: __ZNSt3__112basic_stringIcNS_11char_traitsIcEENS_9allocatorIcEEE16__begin_lifetimeB7v160006EPcm, symObjAddr: 0x2364, symBinAddr: 0x10000566C, symSize: 0x14 }
  - { offsetInCU: 0xE49F, offset: 0xE49F, size: 0x8, addend: 0x0, symName: __ZNSt3__112basic_stringIcNS_11char_traitsIcEENS_9allocatorIcEEE18__set_long_pointerB7v160006EPc, symObjAddr: 0x2378, symBinAddr: 0x100005680, symSize: 0x38 }
  - { offsetInCU: 0xE4D4, offset: 0xE4D4, size: 0x8, addend: 0x0, symName: __ZNSt3__112basic_stringIcNS_11char_traitsIcEENS_9allocatorIcEEE14__set_long_capB7v160006Em, symObjAddr: 0x23B0, symBinAddr: 0x1000056B8, symSize: 0x70 }
  - { offsetInCU: 0xE509, offset: 0xE509, size: 0x8, addend: 0x0, symName: __ZNSt3__112basic_stringIcNS_11char_traitsIcEENS_9allocatorIcEEE15__set_long_sizeB7v160006Em, symObjAddr: 0x2420, symBinAddr: 0x100005728, symSize: 0x38 }
  - { offsetInCU: 0xE53E, offset: 0xE53E, size: 0x8, addend: 0x0, symName: __ZNSt3__122__compressed_pair_elemINS_12basic_stringIcNS_11char_traitsIcEENS_9allocatorIcEEE5__repELi0ELb0EE5__getB7v160006Ev, symObjAddr: 0x2458, symBinAddr: 0x100005760, symSize: 0x14 }
  - { offsetInCU: 0xE564, offset: 0xE564, size: 0x8, addend: 0x0, symName: __ZNSt3__112basic_stringIcNS_11char_traitsIcEENS_9allocatorIcEEE10__align_itB7v160006ILm16EEEmm, symObjAddr: 0x246C, symBinAddr: 0x100005774, symSize: 0x1C }
  - { offsetInCU: 0xE592, offset: 0xE592, size: 0x8, addend: 0x0, symName: __ZNSt3__19allocatorIcE8allocateB7v160006Em, symObjAddr: 0x2488, symBinAddr: 0x100005790, symSize: 0x84 }
  - { offsetInCU: 0xE5D0, offset: 0xE5D0, size: 0x8, addend: 0x0, symName: __ZNSt3__116allocator_traitsINS_9allocatorIcEEE8max_sizeB7v160006IS2_vEEmRKS2_, symObjAddr: 0x250C, symBinAddr: 0x100005814, symSize: 0x24 }
  - { offsetInCU: 0xE5FE, offset: 0xE5FE, size: 0x8, addend: 0x0, symName: __ZNKSt3__19allocatorIcE8max_sizeB7v160006Ev, symObjAddr: 0x258C, symBinAddr: 0x100005894, symSize: 0x14 }
  - { offsetInCU: 0xE624, offset: 0xE624, size: 0x8, addend: 0x0, symName: __ZNSt3__117__compressed_pairINS_12basic_stringIcNS_11char_traitsIcEENS_9allocatorIcEEE5__repES5_E6secondB7v160006Ev, symObjAddr: 0x25C4, symBinAddr: 0x1000058CC, symSize: 0x24 }
  - { offsetInCU: 0xE64A, offset: 0xE64A, size: 0x8, addend: 0x0, symName: __ZNSt3__122__compressed_pair_elemINS_9allocatorIcEELi1ELb1EE5__getB7v160006Ev, symObjAddr: 0x25E8, symBinAddr: 0x1000058F0, symSize: 0x14 }
  - { offsetInCU: 0xE670, offset: 0xE670, size: 0x8, addend: 0x0, symName: __ZNSt3__113unordered_mapINS_12basic_stringIcNS_11char_traitsIcEENS_9allocatorIcEEEENS_4pairIffEENS_4hashIS6_EENS_8equal_toIS6_EENS4_INS7_IKS6_S8_EEEEEC2B7v160006Ev, symObjAddr: 0x25FC, symBinAddr: 0x100005904, symSize: 0x64 }
  - { offsetInCU: 0xE69A, offset: 0xE69A, size: 0x8, addend: 0x0, symName: __ZNSt3__112__hash_tableINS_17__hash_value_typeINS_12basic_stringIcNS_11char_traitsIcEENS_9allocatorIcEEEENS_4pairIffEEEENS_22__unordered_map_hasherIS7_SA_NS_4hashIS7_EENS_8equal_toIS7_EELb1EEENS_21__unordered_map_equalIS7_SA_SF_SD_Lb1EEENS5_ISA_EEEC1Ev, symObjAddr: 0x2660, symBinAddr: 0x100005968, symSize: 0x2C }
  - { offsetInCU: 0xE6C6, offset: 0xE6C6, size: 0x8, addend: 0x0, symName: __ZNSt3__112__hash_tableINS_17__hash_value_typeINS_12basic_stringIcNS_11char_traitsIcEENS_9allocatorIcEEEENS_4pairIffEEEENS_22__unordered_map_hasherIS7_SA_NS_4hashIS7_EENS_8equal_toIS7_EELb1EEENS_21__unordered_map_equalIS7_SA_SF_SD_Lb1EEENS5_ISA_EEED1Ev, symObjAddr: 0x269C, symBinAddr: 0x1000059A4, symSize: 0x2C }
  - { offsetInCU: 0xE6F2, offset: 0xE6F2, size: 0x8, addend: 0x0, symName: __ZNSt3__112__hash_tableINS_17__hash_value_typeINS_12basic_stringIcNS_11char_traitsIcEENS_9allocatorIcEEEENS_4pairIffEEEENS_22__unordered_map_hasherIS7_SA_NS_4hashIS7_EENS_8equal_toIS7_EELb1EEENS_21__unordered_map_equalIS7_SA_SF_SD_Lb1EEENS5_ISA_EEEC2Ev, symObjAddr: 0x26C8, symBinAddr: 0x1000059D0, symSize: 0xA4 }
  - { offsetInCU: 0xE71E, offset: 0xE71E, size: 0x8, addend: 0x0, symName: __ZNSt3__110unique_ptrIA_PNS_16__hash_node_baseIPNS_11__hash_nodeINS_17__hash_value_typeINS_12basic_stringIcNS_11char_traitsIcEENS_9allocatorIcEEEENS_4pairIffEEEEPvEEEENS_25__bucket_list_deallocatorINS7_ISH_EEEEEC1B7v160006ILb1EvEEv, symObjAddr: 0x276C, symBinAddr: 0x100005A74, symSize: 0x2C }
  - { offsetInCU: 0xE753, offset: 0xE753, size: 0x8, addend: 0x0, symName: __ZNSt3__117__compressed_pairINS_16__hash_node_baseIPNS_11__hash_nodeINS_17__hash_value_typeINS_12basic_stringIcNS_11char_traitsIcEENS_9allocatorIcEEEENS_4pairIffEEEEPvEEEENS7_ISE_EEEC1B7v160006ILb1EvEEv, symObjAddr: 0x2798, symBinAddr: 0x100005AA0, symSize: 0x2C }
  - { offsetInCU: 0xE78D, offset: 0xE78D, size: 0x8, addend: 0x0, symName: __ZNSt3__117__compressed_pairImNS_22__unordered_map_hasherINS_12basic_stringIcNS_11char_traitsIcEENS_9allocatorIcEEEENS_17__hash_value_typeIS7_NS_4pairIffEEEENS_4hashIS7_EENS_8equal_toIS7_EELb1EEEEC1B7v160006IiNS_18__default_init_tagEEEOT_OT0_, symObjAddr: 0x27C4, symBinAddr: 0x100005ACC, symSize: 0x3C }
  - { offsetInCU: 0xE7EA, offset: 0xE7EA, size: 0x8, addend: 0x0, symName: __ZNSt3__117__compressed_pairIfNS_21__unordered_map_equalINS_12basic_stringIcNS_11char_traitsIcEENS_9allocatorIcEEEENS_17__hash_value_typeIS7_NS_4pairIffEEEENS_8equal_toIS7_EENS_4hashIS7_EELb1EEEEC1B7v160006IfNS_18__default_init_tagEEEOT_OT0_, symObjAddr: 0x2800, symBinAddr: 0x100005B08, symSize: 0x3C }
  - { offsetInCU: 0xE842, offset: 0xE842, size: 0x8, addend: 0x0, symName: __ZNSt3__110unique_ptrIA_PNS_16__hash_node_baseIPNS_11__hash_nodeINS_17__hash_value_typeINS_12basic_stringIcNS_11char_traitsIcEENS_9allocatorIcEEEENS_4pairIffEEEEPvEEEENS_25__bucket_list_deallocatorINS7_ISH_EEEEED1B7v160006Ev, symObjAddr: 0x283C, symBinAddr: 0x100005B44, symSize: 0x2C }
  - { offsetInCU: 0xE86C, offset: 0xE86C, size: 0x8, addend: 0x0, symName: __ZNSt3__110unique_ptrIA_PNS_16__hash_node_baseIPNS_11__hash_nodeINS_17__hash_value_typeINS_12basic_stringIcNS_11char_traitsIcEENS_9allocatorIcEEEENS_4pairIffEEEEPvEEEENS_25__bucket_list_deallocatorINS7_ISH_EEEEEC2B7v160006ILb1EvEEv, symObjAddr: 0x2868, symBinAddr: 0x100005B70, symSize: 0x50 }
  - { offsetInCU: 0xE8A6, offset: 0xE8A6, size: 0x8, addend: 0x0, symName: __ZNSt3__117__compressed_pairIPPNS_16__hash_node_baseIPNS_11__hash_nodeINS_17__hash_value_typeINS_12basic_stringIcNS_11char_traitsIcEENS_9allocatorIcEEEENS_4pairIffEEEEPvEEEENS_25__bucket_list_deallocatorINS7_ISH_EEEEEC1B7v160006INS_16__value_init_tagESO_EEOT_OT0_, symObjAddr: 0x28B8, symBinAddr: 0x100005BC0, symSize: 0x3C }
  - { offsetInCU: 0xE8FE, offset: 0xE8FE, size: 0x8, addend: 0x0, symName: __ZNSt3__117__compressed_pairIPPNS_16__hash_node_baseIPNS_11__hash_nodeINS_17__hash_value_typeINS_12basic_stringIcNS_11char_traitsIcEENS_9allocatorIcEEEENS_4pairIffEEEEPvEEEENS_25__bucket_list_deallocatorINS7_ISH_EEEEEC2B7v160006INS_16__value_init_tagESO_EEOT_OT0_, symObjAddr: 0x28F4, symBinAddr: 0x100005BFC, symSize: 0x40 }
  - { offsetInCU: 0xE956, offset: 0xE956, size: 0x8, addend: 0x0, symName: __ZNSt3__122__compressed_pair_elemIPPNS_16__hash_node_baseIPNS_11__hash_nodeINS_17__hash_value_typeINS_12basic_stringIcNS_11char_traitsIcEENS_9allocatorIcEEEENS_4pairIffEEEEPvEEEELi0ELb0EEC2B7v160006ENS_16__value_init_tagE, symObjAddr: 0x2934, symBinAddr: 0x100005C3C, symSize: 0x18 }
  - { offsetInCU: 0xE98B, offset: 0xE98B, size: 0x8, addend: 0x0, symName: __ZNSt3__122__compressed_pair_elemINS_25__bucket_list_deallocatorINS_9allocatorIPNS_16__hash_node_baseIPNS_11__hash_nodeINS_17__hash_value_typeINS_12basic_stringIcNS_11char_traitsIcEENS2_IcEEEENS_4pairIffEEEEPvEEEEEEEELi1ELb0EEC2B7v160006ENS_16__value_init_tagE, symObjAddr: 0x294C, symBinAddr: 0x100005C54, symSize: 0x2C }
  - { offsetInCU: 0xE9C0, offset: 0xE9C0, size: 0x8, addend: 0x0, symName: __ZNSt3__125__bucket_list_deallocatorINS_9allocatorIPNS_16__hash_node_baseIPNS_11__hash_nodeINS_17__hash_value_typeINS_12basic_stringIcNS_11char_traitsIcEENS1_IcEEEENS_4pairIffEEEEPvEEEEEEEC1B7v160006Ev, symObjAddr: 0x2978, symBinAddr: 0x100005C80, symSize: 0x2C }
  - { offsetInCU: 0xE9EA, offset: 0xE9EA, size: 0x8, addend: 0x0, symName: __ZNSt3__125__bucket_list_deallocatorINS_9allocatorIPNS_16__hash_node_baseIPNS_11__hash_nodeINS_17__hash_value_typeINS_12basic_stringIcNS_11char_traitsIcEENS1_IcEEEENS_4pairIffEEEEPvEEEEEEEC2B7v160006Ev, symObjAddr: 0x29A4, symBinAddr: 0x100005CAC, symSize: 0x38 }
  - { offsetInCU: 0xEA14, offset: 0xEA14, size: 0x8, addend: 0x0, symName: __ZNSt3__117__compressed_pairImNS_9allocatorIPNS_16__hash_node_baseIPNS_11__hash_nodeINS_17__hash_value_typeINS_12basic_stringIcNS_11char_traitsIcEENS1_IcEEEENS_4pairIffEEEEPvEEEEEEEC1B7v160006IiNS_18__default_init_tagEEEOT_OT0_, symObjAddr: 0x29DC, symBinAddr: 0x100005CE4, symSize: 0x3C }
  - { offsetInCU: 0xEA6C, offset: 0xEA6C, size: 0x8, addend: 0x0, symName: __ZNSt3__117__compressed_pairImNS_9allocatorIPNS_16__hash_node_baseIPNS_11__hash_nodeINS_17__hash_value_typeINS_12basic_stringIcNS_11char_traitsIcEENS1_IcEEEENS_4pairIffEEEEPvEEEEEEEC2B7v160006IiNS_18__default_init_tagEEEOT_OT0_, symObjAddr: 0x2A18, symBinAddr: 0x100005D20, symSize: 0x40 }
  - { offsetInCU: 0xEAC4, offset: 0xEAC4, size: 0x8, addend: 0x0, symName: __ZNSt3__122__compressed_pair_elemImLi0ELb0EEC2B7v160006IivEEOT_, symObjAddr: 0x2A58, symBinAddr: 0x100005D60, symSize: 0x24 }
  - { offsetInCU: 0xEB06, offset: 0xEB06, size: 0x8, addend: 0x0, symName: __ZNSt3__122__compressed_pair_elemINS_9allocatorIPNS_16__hash_node_baseIPNS_11__hash_nodeINS_17__hash_value_typeINS_12basic_stringIcNS_11char_traitsIcEENS1_IcEEEENS_4pairIffEEEEPvEEEEEELi1ELb1EEC2B7v160006ENS_18__default_init_tagE, symObjAddr: 0x2A7C, symBinAddr: 0x100005D84, symSize: 0x2C }
  - { offsetInCU: 0xEB3B, offset: 0xEB3B, size: 0x8, addend: 0x0, symName: __ZNSt3__19allocatorIPNS_16__hash_node_baseIPNS_11__hash_nodeINS_17__hash_value_typeINS_12basic_stringIcNS_11char_traitsIcEENS0_IcEEEENS_4pairIffEEEEPvEEEEEC2B7v160006Ev, symObjAddr: 0x2AA8, symBinAddr: 0x100005DB0, symSize: 0x2C }
  - { offsetInCU: 0xEB65, offset: 0xEB65, size: 0x8, addend: 0x0, symName: __ZNSt3__116__non_trivial_ifILb1ENS_9allocatorIPNS_16__hash_node_baseIPNS_11__hash_nodeINS_17__hash_value_typeINS_12basic_stringIcNS_11char_traitsIcEENS1_IcEEEENS_4pairIffEEEEPvEEEEEEEC2B7v160006Ev, symObjAddr: 0x2AD4, symBinAddr: 0x100005DDC, symSize: 0x14 }
  - { offsetInCU: 0xEB8F, offset: 0xEB8F, size: 0x8, addend: 0x0, symName: __ZNSt3__117__compressed_pairINS_16__hash_node_baseIPNS_11__hash_nodeINS_17__hash_value_typeINS_12basic_stringIcNS_11char_traitsIcEENS_9allocatorIcEEEENS_4pairIffEEEEPvEEEENS7_ISE_EEEC2B7v160006ILb1EvEEv, symObjAddr: 0x2AE8, symBinAddr: 0x100005DF0, symSize: 0x34 }
  - { offsetInCU: 0xEBC4, offset: 0xEBC4, size: 0x8, addend: 0x0, symName: __ZNSt3__122__compressed_pair_elemINS_16__hash_node_baseIPNS_11__hash_nodeINS_17__hash_value_typeINS_12basic_stringIcNS_11char_traitsIcEENS_9allocatorIcEEEENS_4pairIffEEEEPvEEEELi0ELb0EEC2B7v160006ENS_16__value_init_tagE, symObjAddr: 0x2B1C, symBinAddr: 0x100005E24, symSize: 0x2C }
  - { offsetInCU: 0xEBF9, offset: 0xEBF9, size: 0x8, addend: 0x0, symName: __ZNSt3__122__compressed_pair_elemINS_9allocatorINS_11__hash_nodeINS_17__hash_value_typeINS_12basic_stringIcNS_11char_traitsIcEENS1_IcEEEENS_4pairIffEEEEPvEEEELi1ELb1EEC2B7v160006ENS_16__value_init_tagE, symObjAddr: 0x2B48, symBinAddr: 0x100005E50, symSize: 0x2C }
  - { offsetInCU: 0xEC2E, offset: 0xEC2E, size: 0x8, addend: 0x0, symName: __ZNSt3__116__hash_node_baseIPNS_11__hash_nodeINS_17__hash_value_typeINS_12basic_stringIcNS_11char_traitsIcEENS_9allocatorIcEEEENS_4pairIffEEEEPvEEEC1B7v160006Ev, symObjAddr: 0x2B74, symBinAddr: 0x100005E7C, symSize: 0x2C }
  - { offsetInCU: 0xEC58, offset: 0xEC58, size: 0x8, addend: 0x0, symName: __ZNSt3__116__hash_node_baseIPNS_11__hash_nodeINS_17__hash_value_typeINS_12basic_stringIcNS_11char_traitsIcEENS_9allocatorIcEEEENS_4pairIffEEEEPvEEEC2B7v160006Ev, symObjAddr: 0x2BA0, symBinAddr: 0x100005EA8, symSize: 0x18 }
  - { offsetInCU: 0xEC82, offset: 0xEC82, size: 0x8, addend: 0x0, symName: __ZNSt3__19allocatorINS_11__hash_nodeINS_17__hash_value_typeINS_12basic_stringIcNS_11char_traitsIcEENS0_IcEEEENS_4pairIffEEEEPvEEEC2B7v160006Ev, symObjAddr: 0x2BB8, symBinAddr: 0x100005EC0, symSize: 0x2C }
  - { offsetInCU: 0xECAC, offset: 0xECAC, size: 0x8, addend: 0x0, symName: __ZNSt3__116__non_trivial_ifILb1ENS_9allocatorINS_11__hash_nodeINS_17__hash_value_typeINS_12basic_stringIcNS_11char_traitsIcEENS1_IcEEEENS_4pairIffEEEEPvEEEEEC2B7v160006Ev, symObjAddr: 0x2BE4, symBinAddr: 0x100005EEC, symSize: 0x14 }
  - { offsetInCU: 0xECD6, offset: 0xECD6, size: 0x8, addend: 0x0, symName: __ZNSt3__117__compressed_pairImNS_22__unordered_map_hasherINS_12basic_stringIcNS_11char_traitsIcEENS_9allocatorIcEEEENS_17__hash_value_typeIS7_NS_4pairIffEEEENS_4hashIS7_EENS_8equal_toIS7_EELb1EEEEC2B7v160006IiNS_18__default_init_tagEEEOT_OT0_, symObjAddr: 0x2BF8, symBinAddr: 0x100005F00, symSize: 0x40 }
  - { offsetInCU: 0xED2E, offset: 0xED2E, size: 0x8, addend: 0x0, symName: __ZNSt3__122__compressed_pair_elemINS_22__unordered_map_hasherINS_12basic_stringIcNS_11char_traitsIcEENS_9allocatorIcEEEENS_17__hash_value_typeIS7_NS_4pairIffEEEENS_4hashIS7_EENS_8equal_toIS7_EELb1EEELi1ELb1EEC2B7v160006ENS_18__default_init_tagE, symObjAddr: 0x2C38, symBinAddr: 0x100005F40, symSize: 0x2C }
  - { offsetInCU: 0xED63, offset: 0xED63, size: 0x8, addend: 0x0, symName: __ZNSt3__122__unordered_map_hasherINS_12basic_stringIcNS_11char_traitsIcEENS_9allocatorIcEEEENS_17__hash_value_typeIS6_NS_4pairIffEEEENS_4hashIS6_EENS_8equal_toIS6_EELb1EEC2B7v160006Ev, symObjAddr: 0x2C64, symBinAddr: 0x100005F6C, symSize: 0x14 }
  - { offsetInCU: 0xED8D, offset: 0xED8D, size: 0x8, addend: 0x0, symName: __ZNSt3__117__compressed_pairIfNS_21__unordered_map_equalINS_12basic_stringIcNS_11char_traitsIcEENS_9allocatorIcEEEENS_17__hash_value_typeIS7_NS_4pairIffEEEENS_8equal_toIS7_EENS_4hashIS7_EELb1EEEEC2B7v160006IfNS_18__default_init_tagEEEOT_OT0_, symObjAddr: 0x2C78, symBinAddr: 0x100005F80, symSize: 0x40 }
  - { offsetInCU: 0xEDE5, offset: 0xEDE5, size: 0x8, addend: 0x0, symName: __ZNSt3__122__compressed_pair_elemIfLi0ELb0EEC2B7v160006IfvEEOT_, symObjAddr: 0x2CB8, symBinAddr: 0x100005FC0, symSize: 0x24 }
  - { offsetInCU: 0xEE27, offset: 0xEE27, size: 0x8, addend: 0x0, symName: __ZNSt3__122__compressed_pair_elemINS_21__unordered_map_equalINS_12basic_stringIcNS_11char_traitsIcEENS_9allocatorIcEEEENS_17__hash_value_typeIS7_NS_4pairIffEEEENS_8equal_toIS7_EENS_4hashIS7_EELb1EEELi1ELb1EEC2B7v160006ENS_18__default_init_tagE, symObjAddr: 0x2CDC, symBinAddr: 0x100005FE4, symSize: 0x2C }
  - { offsetInCU: 0xEE5C, offset: 0xEE5C, size: 0x8, addend: 0x0, symName: __ZNSt3__121__unordered_map_equalINS_12basic_stringIcNS_11char_traitsIcEENS_9allocatorIcEEEENS_17__hash_value_typeIS6_NS_4pairIffEEEENS_8equal_toIS6_EENS_4hashIS6_EELb1EEC2B7v160006Ev, symObjAddr: 0x2D08, symBinAddr: 0x100006010, symSize: 0x14 }
  - { offsetInCU: 0xEE86, offset: 0xEE86, size: 0x8, addend: 0x0, symName: __ZNSt3__110unique_ptrIA_PNS_16__hash_node_baseIPNS_11__hash_nodeINS_17__hash_value_typeINS_12basic_stringIcNS_11char_traitsIcEENS_9allocatorIcEEEENS_4pairIffEEEEPvEEEENS_25__bucket_list_deallocatorINS7_ISH_EEEEED2B7v160006Ev, symObjAddr: 0x2D1C, symBinAddr: 0x100006024, symSize: 0x30 }
  - { offsetInCU: 0xEEB0, offset: 0xEEB0, size: 0x8, addend: 0x0, symName: __ZNSt3__110unique_ptrIA_PNS_16__hash_node_baseIPNS_11__hash_nodeINS_17__hash_value_typeINS_12basic_stringIcNS_11char_traitsIcEENS_9allocatorIcEEEENS_4pairIffEEEEPvEEEENS_25__bucket_list_deallocatorINS7_ISH_EEEEE5resetB7v160006EDn, symObjAddr: 0x2D4C, symBinAddr: 0x100006054, symSize: 0x6C }
  - { offsetInCU: 0xEEF1, offset: 0xEEF1, size: 0x8, addend: 0x0, symName: __ZNSt3__117__compressed_pairIPPNS_16__hash_node_baseIPNS_11__hash_nodeINS_17__hash_value_typeINS_12basic_stringIcNS_11char_traitsIcEENS_9allocatorIcEEEENS_4pairIffEEEEPvEEEENS_25__bucket_list_deallocatorINS7_ISH_EEEEE5firstB7v160006Ev, symObjAddr: 0x2DB8, symBinAddr: 0x1000060C0, symSize: 0x24 }
  - { offsetInCU: 0xEF17, offset: 0xEF17, size: 0x8, addend: 0x0, symName: __ZNSt3__117__compressed_pairIPPNS_16__hash_node_baseIPNS_11__hash_nodeINS_17__hash_value_typeINS_12basic_stringIcNS_11char_traitsIcEENS_9allocatorIcEEEENS_4pairIffEEEEPvEEEENS_25__bucket_list_deallocatorINS7_ISH_EEEEE6secondB7v160006Ev, symObjAddr: 0x2DDC, symBinAddr: 0x1000060E4, symSize: 0x28 }
  - { offsetInCU: 0xEF3D, offset: 0xEF3D, size: 0x8, addend: 0x0, symName: __ZNSt3__125__bucket_list_deallocatorINS_9allocatorIPNS_16__hash_node_baseIPNS_11__hash_nodeINS_17__hash_value_typeINS_12basic_stringIcNS_11char_traitsIcEENS1_IcEEEENS_4pairIffEEEEPvEEEEEEEclB7v160006EPSH_, symObjAddr: 0x2E04, symBinAddr: 0x10000610C, symSize: 0x58 }
  - { offsetInCU: 0xEF72, offset: 0xEF72, size: 0x8, addend: 0x0, symName: __ZNSt3__122__compressed_pair_elemIPPNS_16__hash_node_baseIPNS_11__hash_nodeINS_17__hash_value_typeINS_12basic_stringIcNS_11char_traitsIcEENS_9allocatorIcEEEENS_4pairIffEEEEPvEEEELi0ELb0EE5__getB7v160006Ev, symObjAddr: 0x2E5C, symBinAddr: 0x100006164, symSize: 0x14 }
  - { offsetInCU: 0xEF98, offset: 0xEF98, size: 0x8, addend: 0x0, symName: __ZNSt3__122__compressed_pair_elemINS_25__bucket_list_deallocatorINS_9allocatorIPNS_16__hash_node_baseIPNS_11__hash_nodeINS_17__hash_value_typeINS_12basic_stringIcNS_11char_traitsIcEENS2_IcEEEENS_4pairIffEEEEPvEEEEEEEELi1ELb0EE5__getB7v160006Ev, symObjAddr: 0x2E70, symBinAddr: 0x100006178, symSize: 0x14 }
  - { offsetInCU: 0xEFBE, offset: 0xEFBE, size: 0x8, addend: 0x0, symName: __ZNSt3__116allocator_traitsINS_9allocatorIPNS_16__hash_node_baseIPNS_11__hash_nodeINS_17__hash_value_typeINS_12basic_stringIcNS_11char_traitsIcEENS1_IcEEEENS_4pairIffEEEEPvEEEEEEE10deallocateB7v160006ERSI_PSH_m, symObjAddr: 0x2E84, symBinAddr: 0x10000618C, symSize: 0x34 }
  - { offsetInCU: 0xF000, offset: 0xF000, size: 0x8, addend: 0x0, symName: __ZNSt3__125__bucket_list_deallocatorINS_9allocatorIPNS_16__hash_node_baseIPNS_11__hash_nodeINS_17__hash_value_typeINS_12basic_stringIcNS_11char_traitsIcEENS1_IcEEEENS_4pairIffEEEEPvEEEEEEE7__allocB7v160006Ev, symObjAddr: 0x2EB8, symBinAddr: 0x1000061C0, symSize: 0x24 }
  - { offsetInCU: 0xF026, offset: 0xF026, size: 0x8, addend: 0x0, symName: __ZNSt3__125__bucket_list_deallocatorINS_9allocatorIPNS_16__hash_node_baseIPNS_11__hash_nodeINS_17__hash_value_typeINS_12basic_stringIcNS_11char_traitsIcEENS1_IcEEEENS_4pairIffEEEEPvEEEEEEE4sizeB7v160006Ev, symObjAddr: 0x2EDC, symBinAddr: 0x1000061E4, symSize: 0x24 }
  - { offsetInCU: 0xF04C, offset: 0xF04C, size: 0x8, addend: 0x0, symName: __ZNSt3__19allocatorIPNS_16__hash_node_baseIPNS_11__hash_nodeINS_17__hash_value_typeINS_12basic_stringIcNS_11char_traitsIcEENS0_IcEEEENS_4pairIffEEEEPvEEEEE10deallocateB7v160006EPSG_m, symObjAddr: 0x2F00, symBinAddr: 0x100006208, symSize: 0x70 }
  - { offsetInCU: 0xF08E, offset: 0xF08E, size: 0x8, addend: 0x0, symName: __ZNSt3__117__compressed_pairImNS_9allocatorIPNS_16__hash_node_baseIPNS_11__hash_nodeINS_17__hash_value_typeINS_12basic_stringIcNS_11char_traitsIcEENS1_IcEEEENS_4pairIffEEEEPvEEEEEEE6secondB7v160006Ev, symObjAddr: 0x2FEC, symBinAddr: 0x1000062F4, symSize: 0x24 }
  - { offsetInCU: 0xF0B4, offset: 0xF0B4, size: 0x8, addend: 0x0, symName: __ZNSt3__122__compressed_pair_elemINS_9allocatorIPNS_16__hash_node_baseIPNS_11__hash_nodeINS_17__hash_value_typeINS_12basic_stringIcNS_11char_traitsIcEENS1_IcEEEENS_4pairIffEEEEPvEEEEEELi1ELb1EE5__getB7v160006Ev, symObjAddr: 0x3010, symBinAddr: 0x100006318, symSize: 0x14 }
  - { offsetInCU: 0xF0DA, offset: 0xF0DA, size: 0x8, addend: 0x0, symName: __ZNSt3__117__compressed_pairImNS_9allocatorIPNS_16__hash_node_baseIPNS_11__hash_nodeINS_17__hash_value_typeINS_12basic_stringIcNS_11char_traitsIcEENS1_IcEEEENS_4pairIffEEEEPvEEEEEEE5firstB7v160006Ev, symObjAddr: 0x3024, symBinAddr: 0x10000632C, symSize: 0x24 }
  - { offsetInCU: 0xF100, offset: 0xF100, size: 0x8, addend: 0x0, symName: __ZNSt3__122__compressed_pair_elemImLi0ELb0EE5__getB7v160006Ev, symObjAddr: 0x3048, symBinAddr: 0x100006350, symSize: 0x14 }
  - { offsetInCU: 0xF126, offset: 0xF126, size: 0x8, addend: 0x0, symName: __ZNSt3__112__hash_tableINS_17__hash_value_typeINS_12basic_stringIcNS_11char_traitsIcEENS_9allocatorIcEEEENS_4pairIffEEEENS_22__unordered_map_hasherIS7_SA_NS_4hashIS7_EENS_8equal_toIS7_EELb1EEENS_21__unordered_map_equalIS7_SA_SF_SD_Lb1EEENS5_ISA_EEED2Ev, symObjAddr: 0x305C, symBinAddr: 0x100006364, symSize: 0x80 }
  - { offsetInCU: 0xF152, offset: 0xF152, size: 0x8, addend: 0x0, symName: __ZNSt3__112__hash_tableINS_17__hash_value_typeINS_12basic_stringIcNS_11char_traitsIcEENS_9allocatorIcEEEENS_4pairIffEEEENS_22__unordered_map_hasherIS7_SA_NS_4hashIS7_EENS_8equal_toIS7_EELb1EEENS_21__unordered_map_equalIS7_SA_SF_SD_Lb1EEENS5_ISA_EEE17__deallocate_nodeEPNS_16__hash_node_baseIPNS_11__hash_nodeISA_PvEEEE, symObjAddr: 0x30DC, symBinAddr: 0x1000063E4, symSize: 0xBC }
  - { offsetInCU: 0xF1BC, offset: 0xF1BC, size: 0x8, addend: 0x0, symName: __ZNSt3__117__compressed_pairINS_16__hash_node_baseIPNS_11__hash_nodeINS_17__hash_value_typeINS_12basic_stringIcNS_11char_traitsIcEENS_9allocatorIcEEEENS_4pairIffEEEEPvEEEENS7_ISE_EEE5firstB7v160006Ev, symObjAddr: 0x3198, symBinAddr: 0x1000064A0, symSize: 0x24 }
  - { offsetInCU: 0xF1E2, offset: 0xF1E2, size: 0x8, addend: 0x0, symName: __ZNSt3__112__hash_tableINS_17__hash_value_typeINS_12basic_stringIcNS_11char_traitsIcEENS_9allocatorIcEEEENS_4pairIffEEEENS_22__unordered_map_hasherIS7_SA_NS_4hashIS7_EENS_8equal_toIS7_EELb1EEENS_21__unordered_map_equalIS7_SA_SF_SD_Lb1EEENS5_ISA_EEE12__node_allocB7v160006Ev, symObjAddr: 0x31CC, symBinAddr: 0x1000064D4, symSize: 0x28 }
  - { offsetInCU: 0xF208, offset: 0xF208, size: 0x8, addend: 0x0, symName: __ZNSt3__116__hash_node_baseIPNS_11__hash_nodeINS_17__hash_value_typeINS_12basic_stringIcNS_11char_traitsIcEENS_9allocatorIcEEEENS_4pairIffEEEEPvEEE8__upcastB7v160006Ev, symObjAddr: 0x31F4, symBinAddr: 0x1000064FC, symSize: 0x24 }
  - { offsetInCU: 0xF22E, offset: 0xF22E, size: 0x8, addend: 0x0, symName: __ZNSt3__116allocator_traitsINS_9allocatorINS_11__hash_nodeINS_17__hash_value_typeINS_12basic_stringIcNS_11char_traitsIcEENS1_IcEEEENS_4pairIffEEEEPvEEEEE7destroyB7v160006INS9_IKS8_SA_EEvvEEvRSE_PT_, symObjAddr: 0x3218, symBinAddr: 0x100006520, symSize: 0x28 }
  - { offsetInCU: 0xF269, offset: 0xF269, size: 0x8, addend: 0x0, symName: __ZNSt3__122__hash_key_value_typesINS_17__hash_value_typeINS_12basic_stringIcNS_11char_traitsIcEENS_9allocatorIcEEEENS_4pairIffEEEEE9__get_ptrB7v160006ERSA_, symObjAddr: 0x3240, symBinAddr: 0x100006548, symSize: 0x24 }
  - { offsetInCU: 0xF28C, offset: 0xF28C, size: 0x8, addend: 0x0, symName: __ZNSt3__116allocator_traitsINS_9allocatorINS_11__hash_nodeINS_17__hash_value_typeINS_12basic_stringIcNS_11char_traitsIcEENS1_IcEEEENS_4pairIffEEEEPvEEEEE10deallocateB7v160006ERSE_PSD_m, symObjAddr: 0x3264, symBinAddr: 0x10000656C, symSize: 0x34 }
  - { offsetInCU: 0xF2CE, offset: 0xF2CE, size: 0x8, addend: 0x0, symName: __ZNSt3__117__compressed_pairINS_16__hash_node_baseIPNS_11__hash_nodeINS_17__hash_value_typeINS_12basic_stringIcNS_11char_traitsIcEENS_9allocatorIcEEEENS_4pairIffEEEEPvEEEENS7_ISE_EEE6secondB7v160006Ev, symObjAddr: 0x3298, symBinAddr: 0x1000065A0, symSize: 0x24 }
  - { offsetInCU: 0xF2F4, offset: 0xF2F4, size: 0x8, addend: 0x0, symName: __ZNSt3__122__compressed_pair_elemINS_9allocatorINS_11__hash_nodeINS_17__hash_value_typeINS_12basic_stringIcNS_11char_traitsIcEENS1_IcEEEENS_4pairIffEEEEPvEEEELi1ELb1EE5__getB7v160006Ev, symObjAddr: 0x32BC, symBinAddr: 0x1000065C4, symSize: 0x14 }
  - { offsetInCU: 0xF31A, offset: 0xF31A, size: 0x8, addend: 0x0, symName: __ZNSt3__114pointer_traitsIPNS_16__hash_node_baseIPNS_11__hash_nodeINS_17__hash_value_typeINS_12basic_stringIcNS_11char_traitsIcEENS_9allocatorIcEEEENS_4pairIffEEEEPvEEEEE10pointer_toB7v160006ERSG_, symObjAddr: 0x32D0, symBinAddr: 0x1000065D8, symSize: 0x14 }
  - { offsetInCU: 0xF33D, offset: 0xF33D, size: 0x8, addend: 0x0, symName: __ZNSt3__117__hash_value_typeINS_12basic_stringIcNS_11char_traitsIcEENS_9allocatorIcEEEENS_4pairIffEEE11__get_valueB7v160006Ev, symObjAddr: 0x32E4, symBinAddr: 0x1000065EC, symSize: 0x14 }
  - { offsetInCU: 0xF363, offset: 0xF363, size: 0x8, addend: 0x0, symName: __ZNSt3__19allocatorINS_11__hash_nodeINS_17__hash_value_typeINS_12basic_stringIcNS_11char_traitsIcEENS0_IcEEEENS_4pairIffEEEEPvEEE10deallocateB7v160006EPSC_m, symObjAddr: 0x32F8, symBinAddr: 0x100006600, symSize: 0x74 }
  - { offsetInCU: 0xF3A5, offset: 0xF3A5, size: 0x8, addend: 0x0, symName: __ZNSt3__122__compressed_pair_elemINS_16__hash_node_baseIPNS_11__hash_nodeINS_17__hash_value_typeINS_12basic_stringIcNS_11char_traitsIcEENS_9allocatorIcEEEENS_4pairIffEEEEPvEEEELi0ELb0EE5__getB7v160006Ev, symObjAddr: 0x336C, symBinAddr: 0x100006674, symSize: 0x14 }
  - { offsetInCU: 0xF3CB, offset: 0xF3CB, size: 0x8, addend: 0x0, symName: __ZNSt3__113unordered_mapINS_12basic_stringIcNS_11char_traitsIcEENS_9allocatorIcEEEENS_4pairIffEENS_4hashIS6_EENS_8equal_toIS6_EENS4_INS7_IKS6_S8_EEEEED2B7v160006Ev, symObjAddr: 0x3380, symBinAddr: 0x100006688, symSize: 0x2C }
  - { offsetInCU: 0xF3F5, offset: 0xF3F5, size: 0x8, addend: 0x0, symName: __ZNSt3__19basic_iosIcNS_11char_traitsIcEEEC2B7v160006Ev, symObjAddr: 0x33AC, symBinAddr: 0x1000066B4, symSize: 0x44 }
  - { offsetInCU: 0xF41F, offset: 0xF41F, size: 0x8, addend: 0x0, symName: __ZNSt3__113basic_istreamIcNS_11char_traitsIcEEEC2B7v160006EPNS_15basic_streambufIcS2_EE, symObjAddr: 0x33F0, symBinAddr: 0x1000066F8, symSize: 0x64 }
  - { offsetInCU: 0xF464, offset: 0xF464, size: 0x8, addend: 0x0, symName: __ZNSt3__19basic_iosIcNS_11char_traitsIcEEE8setstateB7v160006Ej, symObjAddr: 0x3454, symBinAddr: 0x10000675C, symSize: 0x2C }
  - { offsetInCU: 0xF499, offset: 0xF499, size: 0x8, addend: 0x0, symName: __ZNSt3__18ios_baseC2B7v160006Ev, symObjAddr: 0x3480, symBinAddr: 0x100006788, symSize: 0x24 }
  - { offsetInCU: 0xF4C3, offset: 0xF4C3, size: 0x8, addend: 0x0, symName: __ZNSt3__19basic_iosIcNS_11char_traitsIcEEE4initB7v160006EPNS_15basic_streambufIcS2_EE, symObjAddr: 0x34A4, symBinAddr: 0x1000067AC, symSize: 0x44 }
  - { offsetInCU: 0xF4FA, offset: 0xF4FA, size: 0x8, addend: 0x0, symName: __ZNSt3__111char_traitsIcE3eofEv, symObjAddr: 0x34E8, symBinAddr: 0x1000067F0, symSize: 0x8 }
  - { offsetInCU: 0xF50E, offset: 0xF50E, size: 0x8, addend: 0x0, symName: __ZNSt3__18ios_base8setstateB7v160006Ej, symObjAddr: 0x34F0, symBinAddr: 0x1000067F8, symSize: 0x34 }
  - { offsetInCU: 0xF545, offset: 0xF545, size: 0x8, addend: 0x0, symName: __ZNKSt3__113basic_filebufIcNS_11char_traitsIcEEE7is_openEv, symObjAddr: 0x3524, symBinAddr: 0x10000682C, symSize: 0x24 }
  - { offsetInCU: 0xF56D, offset: 0xF56D, size: 0x8, addend: 0x0, symName: __ZNSt3__111char_traitsIcE6lengthEPKc, symObjAddr: 0x373C, symBinAddr: 0x100006A44, symSize: 0x48 }
  - { offsetInCU: 0xF5AE, offset: 0xF5AE, size: 0x8, addend: 0x0, symName: __ZNKSt3__113basic_ostreamIcNS_11char_traitsIcEEE6sentrycvbB7v160006Ev, symObjAddr: 0x3784, symBinAddr: 0x100006A8C, symSize: 0x1C }
  - { offsetInCU: 0xF5D4, offset: 0xF5D4, size: 0x8, addend: 0x0, symName: __ZNSt3__119ostreambuf_iteratorIcNS_11char_traitsIcEEEC1B7v160006ERNS_13basic_ostreamIcS2_EE, symObjAddr: 0x39E8, symBinAddr: 0x100006CF0, symSize: 0x34 }
  - { offsetInCU: 0xF60C, offset: 0xF60C, size: 0x8, addend: 0x0, symName: __ZNKSt3__18ios_base5flagsB7v160006Ev, symObjAddr: 0x3A1C, symBinAddr: 0x100006D24, symSize: 0x18 }
  - { offsetInCU: 0xF634, offset: 0xF634, size: 0x8, addend: 0x0, symName: __ZNKSt3__19basic_iosIcNS_11char_traitsIcEEE4fillB7v160006Ev, symObjAddr: 0x3A34, symBinAddr: 0x100006D3C, symSize: 0x64 }
  - { offsetInCU: 0xF65C, offset: 0xF65C, size: 0x8, addend: 0x0, symName: __ZNKSt3__119ostreambuf_iteratorIcNS_11char_traitsIcEEE6failedB7v160006Ev, symObjAddr: 0x3A98, symBinAddr: 0x100006DA0, symSize: 0x24 }
  - { offsetInCU: 0xF682, offset: 0xF682, size: 0x8, addend: 0x0, symName: __ZNKSt3__18ios_base5widthB7v160006Ev, symObjAddr: 0x3ABC, symBinAddr: 0x100006DC4, symSize: 0x18 }
  - { offsetInCU: 0xF6AA, offset: 0xF6AA, size: 0x8, addend: 0x0, symName: __ZNSt3__115basic_streambufIcNS_11char_traitsIcEEE5sputnB7v160006EPKcl, symObjAddr: 0x3AD4, symBinAddr: 0x100006DDC, symSize: 0x3C }
  - { offsetInCU: 0xF6EC, offset: 0xF6EC, size: 0x8, addend: 0x0, symName: __ZNSt3__112basic_stringIcNS_11char_traitsIcEENS_9allocatorIcEEEC1B7v160006Emc, symObjAddr: 0x3B10, symBinAddr: 0x100006E18, symSize: 0x3C }
  - { offsetInCU: 0xF734, offset: 0xF734, size: 0x8, addend: 0x0, symName: __ZNKSt3__112basic_stringIcNS_11char_traitsIcEENS_9allocatorIcEEE4dataB7v160006Ev, symObjAddr: 0x3B4C, symBinAddr: 0x100006E54, symSize: 0x28 }
  - { offsetInCU: 0xF75A, offset: 0xF75A, size: 0x8, addend: 0x0, symName: __ZNSt3__18ios_base5widthB7v160006El, symObjAddr: 0x3B74, symBinAddr: 0x100006E7C, symSize: 0x2C }
  - { offsetInCU: 0xF7A0, offset: 0xF7A0, size: 0x8, addend: 0x0, symName: __ZNSt3__112basic_stringIcNS_11char_traitsIcEENS_9allocatorIcEEEC2B7v160006Emc, symObjAddr: 0x3BA0, symBinAddr: 0x100006EA8, symSize: 0x54 }
  - { offsetInCU: 0xF7E8, offset: 0xF7E8, size: 0x8, addend: 0x0, symName: __ZNKSt3__112basic_stringIcNS_11char_traitsIcEENS_9allocatorIcEEE13__get_pointerB7v160006Ev, symObjAddr: 0x3C08, symBinAddr: 0x100006F10, symSize: 0x54 }
  - { offsetInCU: 0xF80E, offset: 0xF80E, size: 0x8, addend: 0x0, symName: __ZNKSt3__112basic_stringIcNS_11char_traitsIcEENS_9allocatorIcEEE9__is_longB7v160006Ev, symObjAddr: 0x3C5C, symBinAddr: 0x100006F64, symSize: 0x74 }
  - { offsetInCU: 0xF834, offset: 0xF834, size: 0x8, addend: 0x0, symName: __ZNKSt3__112basic_stringIcNS_11char_traitsIcEENS_9allocatorIcEEE18__get_long_pointerB7v160006Ev, symObjAddr: 0x3CD0, symBinAddr: 0x100006FD8, symSize: 0x28 }
  - { offsetInCU: 0xF85A, offset: 0xF85A, size: 0x8, addend: 0x0, symName: __ZNKSt3__112basic_stringIcNS_11char_traitsIcEENS_9allocatorIcEEE19__get_short_pointerB7v160006Ev, symObjAddr: 0x3CF8, symBinAddr: 0x100007000, symSize: 0x28 }
  - { offsetInCU: 0xF880, offset: 0xF880, size: 0x8, addend: 0x0, symName: __ZNKSt3__117__compressed_pairINS_12basic_stringIcNS_11char_traitsIcEENS_9allocatorIcEEE5__repES5_E5firstB7v160006Ev, symObjAddr: 0x3D20, symBinAddr: 0x100007028, symSize: 0x24 }
  - { offsetInCU: 0xF8A6, offset: 0xF8A6, size: 0x8, addend: 0x0, symName: __ZNKSt3__122__compressed_pair_elemINS_12basic_stringIcNS_11char_traitsIcEENS_9allocatorIcEEE5__repELi0ELb0EE5__getB7v160006Ev, symObjAddr: 0x3D44, symBinAddr: 0x10000704C, symSize: 0x14 }
  - { offsetInCU: 0xF8CC, offset: 0xF8CC, size: 0x8, addend: 0x0, symName: __ZNSt3__114pointer_traitsIPKcE10pointer_toB7v160006ERS1_, symObjAddr: 0x3D58, symBinAddr: 0x100007060, symSize: 0x14 }
  - { offsetInCU: 0xF8EF, offset: 0xF8EF, size: 0x8, addend: 0x0, symName: __ZNSt3__119ostreambuf_iteratorIcNS_11char_traitsIcEEEC2B7v160006ERNS_13basic_ostreamIcS2_EE, symObjAddr: 0x3D6C, symBinAddr: 0x100007074, symSize: 0x68 }
  - { offsetInCU: 0xF927, offset: 0xF927, size: 0x8, addend: 0x0, symName: __ZNKSt3__19basic_iosIcNS_11char_traitsIcEEE5rdbufB7v160006Ev, symObjAddr: 0x3DD4, symBinAddr: 0x1000070DC, symSize: 0x24 }
  - { offsetInCU: 0xF94F, offset: 0xF94F, size: 0x8, addend: 0x0, symName: __ZNKSt3__18ios_base5rdbufB7v160006Ev, symObjAddr: 0x3DF8, symBinAddr: 0x100007100, symSize: 0x18 }
  - { offsetInCU: 0xF975, offset: 0xF975, size: 0x8, addend: 0x0, symName: __ZNSt3__111char_traitsIcE11eq_int_typeEii, symObjAddr: 0x3E10, symBinAddr: 0x100007118, symSize: 0x28 }
  - { offsetInCU: 0xF9A6, offset: 0xF9A6, size: 0x8, addend: 0x0, symName: __ZNKSt3__19basic_iosIcNS_11char_traitsIcEEE5widenB7v160006Ec, symObjAddr: 0x3E38, symBinAddr: 0x100007140, symSize: 0x8C }
  - { offsetInCU: 0xFA0A, offset: 0xFA0A, size: 0x8, addend: 0x0, symName: __ZNKSt3__15ctypeIcE5widenB7v160006Ec, symObjAddr: 0x3EF0, symBinAddr: 0x1000071F8, symSize: 0x38 }
  - { offsetInCU: 0xFA3F, offset: 0xFA3F, size: 0x8, addend: 0x0, symName: __ZNKSt3__19basic_iosIcNS_11char_traitsIcEEE4failB7v160006Ev, symObjAddr: 0x3F4C, symBinAddr: 0x100007254, symSize: 0x28 }
  - { offsetInCU: 0xFA65, offset: 0xFA65, size: 0x8, addend: 0x0, symName: __ZNKSt3__18ios_base4failB7v160006Ev, symObjAddr: 0x3F74, symBinAddr: 0x10000727C, symSize: 0x28 }
  - { offsetInCU: 0xFA8D, offset: 0xFA8D, size: 0x8, addend: 0x0, symName: __ZNSt3__114basic_iostreamIcNS_11char_traitsIcEEEC2B7v160006EPNS_15basic_streambufIcS2_EE, symObjAddr: 0x3F9C, symBinAddr: 0x1000072A4, symSize: 0xB4 }
  - { offsetInCU: 0xFAD3, offset: 0xFAD3, size: 0x8, addend: 0x0, symName: __ZNSt3__115basic_stringbufIcNS_11char_traitsIcEENS_9allocatorIcEEEC1B7v160006ERKNS_12basic_stringIcS2_S4_EEj, symObjAddr: 0x4050, symBinAddr: 0x100007358, symSize: 0x3C }
  - { offsetInCU: 0xFB19, offset: 0xFB19, size: 0x8, addend: 0x0, symName: __ZNSt3__113basic_ostreamIcNS_11char_traitsIcEEEC2B7v160006Ev, symObjAddr: 0x408C, symBinAddr: 0x100007394, symSize: 0x34 }
  - { offsetInCU: 0xFB50, offset: 0xFB50, size: 0x8, addend: 0x0, symName: __ZNSt3__115basic_stringbufIcNS_11char_traitsIcEENS_9allocatorIcEEEC2B7v160006ERKNS_12basic_stringIcS2_S4_EEj, symObjAddr: 0x40C0, symBinAddr: 0x1000073C8, symSize: 0xD8 }
  - { offsetInCU: 0xFB96, offset: 0xFB96, size: 0x8, addend: 0x0, symName: __ZNKSt3__112basic_stringIcNS_11char_traitsIcEENS_9allocatorIcEEE13get_allocatorB7v160006Ev, symObjAddr: 0x4198, symBinAddr: 0x1000074A0, symSize: 0x24 }
  - { offsetInCU: 0xFBBC, offset: 0xFBBC, size: 0x8, addend: 0x0, symName: __ZNSt3__112basic_stringIcNS_11char_traitsIcEENS_9allocatorIcEEEC1B7v160006ERKS4_, symObjAddr: 0x41BC, symBinAddr: 0x1000074C4, symSize: 0x34 }
  - { offsetInCU: 0xFBF5, offset: 0xFBF5, size: 0x8, addend: 0x0, symName: __ZNKSt3__112basic_stringIcNS_11char_traitsIcEENS_9allocatorIcEEE7__allocB7v160006Ev, symObjAddr: 0x41F0, symBinAddr: 0x1000074F8, symSize: 0x24 }
  - { offsetInCU: 0xFC1B, offset: 0xFC1B, size: 0x8, addend: 0x0, symName: __ZNKSt3__117__compressed_pairINS_12basic_stringIcNS_11char_traitsIcEENS_9allocatorIcEEE5__repES5_E6secondB7v160006Ev, symObjAddr: 0x4214, symBinAddr: 0x10000751C, symSize: 0x24 }
  - { offsetInCU: 0xFC41, offset: 0xFC41, size: 0x8, addend: 0x0, symName: __ZNKSt3__122__compressed_pair_elemINS_9allocatorIcEELi1ELb1EE5__getB7v160006Ev, symObjAddr: 0x4238, symBinAddr: 0x100007540, symSize: 0x14 }
  - { offsetInCU: 0xFC67, offset: 0xFC67, size: 0x8, addend: 0x0, symName: __ZNSt3__112basic_stringIcNS_11char_traitsIcEENS_9allocatorIcEEEC2B7v160006ERKS4_, symObjAddr: 0x424C, symBinAddr: 0x100007554, symSize: 0x48 }
  - { offsetInCU: 0xFCA0, offset: 0xFCA0, size: 0x8, addend: 0x0, symName: __ZNSt3__117__compressed_pairINS_12basic_stringIcNS_11char_traitsIcEENS_9allocatorIcEEE5__repES5_EC1B7v160006INS_18__default_init_tagERKS5_EEOT_OT0_, symObjAddr: 0x4294, symBinAddr: 0x10000759C, symSize: 0x3C }
  - { offsetInCU: 0xFCF8, offset: 0xFCF8, size: 0x8, addend: 0x0, symName: __ZNSt3__117__compressed_pairINS_12basic_stringIcNS_11char_traitsIcEENS_9allocatorIcEEE5__repES5_EC2B7v160006INS_18__default_init_tagERKS5_EEOT_OT0_, symObjAddr: 0x42D0, symBinAddr: 0x1000075D8, symSize: 0x40 }
  - { offsetInCU: 0xFD50, offset: 0xFD50, size: 0x8, addend: 0x0, symName: __ZNSt3__122__compressed_pair_elemINS_9allocatorIcEELi1ELb1EEC2B7v160006IRKS2_vEEOT_, symObjAddr: 0x4310, symBinAddr: 0x100007618, symSize: 0x18 }
  - { offsetInCU: 0xFDB0, offset: 0xFDB0, size: 0x8, addend: 0x0, symName: __ZNKSt3__113basic_istreamIcNS_11char_traitsIcEEE6sentrycvbB7v160006Ev, symObjAddr: 0x4328, symBinAddr: 0x100007630, symSize: 0x1C }
  - { offsetInCU: 0xFDD6, offset: 0xFDD6, size: 0x8, addend: 0x0, symName: __ZNSt3__112basic_stringIcNS_11char_traitsIcEENS_9allocatorIcEEE5clearB7v160006Ev, symObjAddr: 0x4344, symBinAddr: 0x10000764C, symSize: 0x9C }
  - { offsetInCU: 0xFDFE, offset: 0xFDFE, size: 0x8, addend: 0x0, symName: __ZNSt3__115basic_streambufIcNS_11char_traitsIcEEE6sbumpcB7v160006Ev, symObjAddr: 0x43E0, symBinAddr: 0x1000076E8, symSize: 0x78 }
  - { offsetInCU: 0xFE24, offset: 0xFE24, size: 0x8, addend: 0x0, symName: __ZNSt3__111char_traitsIcE12to_char_typeEi, symObjAddr: 0x4458, symBinAddr: 0x100007760, symSize: 0x18 }
  - { offsetInCU: 0xFE47, offset: 0xFE47, size: 0x8, addend: 0x0, symName: __ZNSt3__111char_traitsIcE2eqEcc, symObjAddr: 0x4470, symBinAddr: 0x100007778, symSize: 0x28 }
  - { offsetInCU: 0xFE78, offset: 0xFE78, size: 0x8, addend: 0x0, symName: __ZNKSt3__112basic_stringIcNS_11char_traitsIcEENS_9allocatorIcEEE4sizeB7v160006Ev, symObjAddr: 0x4498, symBinAddr: 0x1000077A0, symSize: 0x54 }
  - { offsetInCU: 0xFE9E, offset: 0xFE9E, size: 0x8, addend: 0x0, symName: __ZNKSt3__112basic_stringIcNS_11char_traitsIcEENS_9allocatorIcEEE8max_sizeB7v160006Ev, symObjAddr: 0x44EC, symBinAddr: 0x1000077F4, symSize: 0xAC }
  - { offsetInCU: 0xFEF1, offset: 0xFEF1, size: 0x8, addend: 0x0, symName: __ZNSt3__18ios_base18__setstate_nothrowB7v160006Ej, symObjAddr: 0x4598, symBinAddr: 0x1000078A0, symSize: 0x64 }
  - { offsetInCU: 0xFF26, offset: 0xFF26, size: 0x8, addend: 0x0, symName: __ZNKSt3__19basic_iosIcNS_11char_traitsIcEEE10exceptionsB7v160006Ev, symObjAddr: 0x45FC, symBinAddr: 0x100007904, symSize: 0x24 }
  - { offsetInCU: 0xFF4C, offset: 0xFF4C, size: 0x8, addend: 0x0, symName: __ZNSt3__111char_traitsIcE6assignERcRKc, symObjAddr: 0x4630, symBinAddr: 0x100007938, symSize: 0x24 }
  - { offsetInCU: 0xFF7D, offset: 0xFF7D, size: 0x8, addend: 0x0, symName: __ZNSt3__112basic_stringIcNS_11char_traitsIcEENS_9allocatorIcEEE18__get_long_pointerB7v160006Ev, symObjAddr: 0x4654, symBinAddr: 0x10000795C, symSize: 0x28 }
  - { offsetInCU: 0xFFA3, offset: 0xFFA3, size: 0x8, addend: 0x0, symName: __ZNSt3__112basic_stringIcNS_11char_traitsIcEENS_9allocatorIcEEE19__get_short_pointerB7v160006Ev, symObjAddr: 0x467C, symBinAddr: 0x100007984, symSize: 0x28 }
  - { offsetInCU: 0xFFC9, offset: 0xFFC9, size: 0x8, addend: 0x0, symName: __ZNSt3__112basic_stringIcNS_11char_traitsIcEENS_9allocatorIcEEE16__set_short_sizeB7v160006Em, symObjAddr: 0x46A4, symBinAddr: 0x1000079AC, symSize: 0x78 }
  - { offsetInCU: 0xFFFE, offset: 0xFFFE, size: 0x8, addend: 0x0, symName: __ZNSt3__114pointer_traitsIPcE10pointer_toB7v160006ERc, symObjAddr: 0x471C, symBinAddr: 0x100007A24, symSize: 0x14 }
  - { offsetInCU: 0x10021, offset: 0x10021, size: 0x8, addend: 0x0, symName: __ZNSt3__111char_traitsIcE11to_int_typeEc, symObjAddr: 0x4730, symBinAddr: 0x100007A38, symSize: 0x14 }
  - { offsetInCU: 0x10044, offset: 0x10044, size: 0x8, addend: 0x0, symName: __ZNKSt3__112basic_stringIcNS_11char_traitsIcEENS_9allocatorIcEEE15__get_long_sizeB7v160006Ev, symObjAddr: 0x4744, symBinAddr: 0x100007A4C, symSize: 0x28 }
  - { offsetInCU: 0x1006A, offset: 0x1006A, size: 0x8, addend: 0x0, symName: __ZNKSt3__112basic_stringIcNS_11char_traitsIcEENS_9allocatorIcEEE16__get_short_sizeB7v160006Ev, symObjAddr: 0x476C, symBinAddr: 0x100007A74, symSize: 0x34 }
  - { offsetInCU: 0x10090, offset: 0x10090, size: 0x8, addend: 0x0, symName: __ZNSt3__114numeric_limitsImE3maxB7v160006Ev, symObjAddr: 0x47A0, symBinAddr: 0x100007AA8, symSize: 0x14 }
  - { offsetInCU: 0x100A4, offset: 0x100A4, size: 0x8, addend: 0x0, symName: __ZNSt3__123__libcpp_numeric_limitsImLb1EE3maxB7v160006Ev, symObjAddr: 0x47B4, symBinAddr: 0x100007ABC, symSize: 0x8 }
  - { offsetInCU: 0x100B8, offset: 0x100B8, size: 0x8, addend: 0x0, symName: __ZNKSt3__18ios_base10exceptionsB7v160006Ev, symObjAddr: 0x47BC, symBinAddr: 0x100007AC4, symSize: 0x18 }
  - { offsetInCU: 0x100E0, offset: 0x100E0, size: 0x8, addend: 0x0, symName: __ZNSt3__14pairIffEC1B7v160006ERKfS3_, symObjAddr: 0x47D4, symBinAddr: 0x100007ADC, symSize: 0x3C }
  - { offsetInCU: 0x10126, offset: 0x10126, size: 0x8, addend: 0x0, symName: __ZNSt3__14pairIffEC2B7v160006ERKfS3_, symObjAddr: 0x4810, symBinAddr: 0x100007B18, symSize: 0x34 }
  - { offsetInCU: 0x1016C, offset: 0x1016C, size: 0x8, addend: 0x0, symName: __ZNSt3__14pairINS_12basic_stringIcNS_11char_traitsIcEENS_9allocatorIcEEEENS0_IffEEEC1B7v160006ERKS6_RKS7_, symObjAddr: 0x4844, symBinAddr: 0x100007B4C, symSize: 0x3C }
  - { offsetInCU: 0x101B2, offset: 0x101B2, size: 0x8, addend: 0x0, symName: __ZNSt3__14pairINS_12basic_stringIcNS_11char_traitsIcEENS_9allocatorIcEEEENS0_IffEEEC2B7v160006ERKS6_RKS7_, symObjAddr: 0x4880, symBinAddr: 0x100007B88, symSize: 0x44 }
  - { offsetInCU: 0x101F8, offset: 0x101F8, size: 0x8, addend: 0x0, symName: __ZNSt3__112__hash_tableINS_17__hash_value_typeINS_12basic_stringIcNS_11char_traitsIcEENS_9allocatorIcEEEENS_4pairIffEEEENS_22__unordered_map_hasherIS7_SA_NS_4hashIS7_EENS_8equal_toIS7_EELb1EEENS_21__unordered_map_equalIS7_SA_SF_SD_Lb1EEENS5_ISA_EEE15__insert_uniqueB7v160006ERKNS8_IKS7_S9_EE, symObjAddr: 0x48C4, symBinAddr: 0x100007BCC, symSize: 0x50 }
  - { offsetInCU: 0x1022D, offset: 0x1022D, size: 0x8, addend: 0x0, symName: __ZNSt3__14pairINS_19__hash_map_iteratorINS_15__hash_iteratorIPNS_11__hash_nodeINS_17__hash_value_typeINS_12basic_stringIcNS_11char_traitsIcEENS_9allocatorIcEEEENS0_IffEEEEPvEEEEEEbEC1B7v160006ISG_bEERKNS0_IT_T0_EE, symObjAddr: 0x4914, symBinAddr: 0x100007C1C, symSize: 0x34 }
  - { offsetInCU: 0x10277, offset: 0x10277, size: 0x8, addend: 0x0, symName: __ZNSt3__112__hash_tableINS_17__hash_value_typeINS_12basic_stringIcNS_11char_traitsIcEENS_9allocatorIcEEEENS_4pairIffEEEENS_22__unordered_map_hasherIS7_SA_NS_4hashIS7_EENS_8equal_toIS7_EELb1EEENS_21__unordered_map_equalIS7_SA_SF_SD_Lb1EEENS5_ISA_EEE25__emplace_unique_key_argsIS7_JRKNS8_IKS7_S9_EEEEENS8_INS_15__hash_iteratorIPNS_11__hash_nodeISA_PvEEEEbEERKT_DpOT0_, symObjAddr: 0x4948, symBinAddr: 0x100007C50, symSize: 0x4C8 }
  - { offsetInCU: 0x10357, offset: 0x10357, size: 0x8, addend: 0x0, symName: __ZNSt3__122__hash_key_value_typesINS_17__hash_value_typeINS_12basic_stringIcNS_11char_traitsIcEENS_9allocatorIcEEEENS_4pairIffEEEEE9__get_keyB7v160006ERKNS8_IKS7_S9_EE, symObjAddr: 0x4E10, symBinAddr: 0x100008118, symSize: 0x14 }
  - { offsetInCU: 0x1037A, offset: 0x1037A, size: 0x8, addend: 0x0, symName: __ZNSt3__112__hash_tableINS_17__hash_value_typeINS_12basic_stringIcNS_11char_traitsIcEENS_9allocatorIcEEEENS_4pairIffEEEENS_22__unordered_map_hasherIS7_SA_NS_4hashIS7_EENS_8equal_toIS7_EELb1EEENS_21__unordered_map_equalIS7_SA_SF_SD_Lb1EEENS5_ISA_EEE13hash_functionB7v160006Ev, symObjAddr: 0x4E24, symBinAddr: 0x10000812C, symSize: 0x28 }
  - { offsetInCU: 0x103A0, offset: 0x103A0, size: 0x8, addend: 0x0, symName: __ZNKSt3__122__unordered_map_hasherINS_12basic_stringIcNS_11char_traitsIcEENS_9allocatorIcEEEENS_17__hash_value_typeIS6_NS_4pairIffEEEENS_4hashIS6_EENS_8equal_toIS6_EELb1EEclB7v160006ERKS6_, symObjAddr: 0x4E4C, symBinAddr: 0x100008154, symSize: 0x2C }
  - { offsetInCU: 0x103D5, offset: 0x103D5, size: 0x8, addend: 0x0, symName: __ZNKSt3__112__hash_tableINS_17__hash_value_typeINS_12basic_stringIcNS_11char_traitsIcEENS_9allocatorIcEEEENS_4pairIffEEEENS_22__unordered_map_hasherIS7_SA_NS_4hashIS7_EENS_8equal_toIS7_EELb1EEENS_21__unordered_map_equalIS7_SA_SF_SD_Lb1EEENS5_ISA_EEE12bucket_countB7v160006Ev, symObjAddr: 0x4E78, symBinAddr: 0x100008180, symSize: 0x28 }
  - { offsetInCU: 0x103FB, offset: 0x103FB, size: 0x8, addend: 0x0, symName: __ZNKSt3__110unique_ptrIA_PNS_16__hash_node_baseIPNS_11__hash_nodeINS_17__hash_value_typeINS_12basic_stringIcNS_11char_traitsIcEENS_9allocatorIcEEEENS_4pairIffEEEEPvEEEENS_25__bucket_list_deallocatorINS7_ISH_EEEEEixB7v160006Em, symObjAddr: 0x4F38, symBinAddr: 0x100008240, symSize: 0x34 }
  - { offsetInCU: 0x10430, offset: 0x10430, size: 0x8, addend: 0x0, symName: __ZNKSt3__116__hash_node_baseIPNS_11__hash_nodeINS_17__hash_value_typeINS_12basic_stringIcNS_11char_traitsIcEENS_9allocatorIcEEEENS_4pairIffEEEEPvEEE6__hashB7v160006Ev, symObjAddr: 0x4F6C, symBinAddr: 0x100008274, symSize: 0x18 }
  - { offsetInCU: 0x10456, offset: 0x10456, size: 0x8, addend: 0x0, symName: __ZNSt3__112__hash_tableINS_17__hash_value_typeINS_12basic_stringIcNS_11char_traitsIcEENS_9allocatorIcEEEENS_4pairIffEEEENS_22__unordered_map_hasherIS7_SA_NS_4hashIS7_EENS_8equal_toIS7_EELb1EEENS_21__unordered_map_equalIS7_SA_SF_SD_Lb1EEENS5_ISA_EEE6key_eqB7v160006Ev, symObjAddr: 0x4F84, symBinAddr: 0x10000828C, symSize: 0x28 }
  - { offsetInCU: 0x1047C, offset: 0x1047C, size: 0x8, addend: 0x0, symName: __ZNKSt3__121__unordered_map_equalINS_12basic_stringIcNS_11char_traitsIcEENS_9allocatorIcEEEENS_17__hash_value_typeIS6_NS_4pairIffEEEENS_8equal_toIS6_EENS_4hashIS6_EELb1EEclB7v160006ERKSA_RKS6_, symObjAddr: 0x4FAC, symBinAddr: 0x1000082B4, symSize: 0x48 }
  - { offsetInCU: 0x104C0, offset: 0x104C0, size: 0x8, addend: 0x0, symName: __ZNSt3__112__hash_tableINS_17__hash_value_typeINS_12basic_stringIcNS_11char_traitsIcEENS_9allocatorIcEEEENS_4pairIffEEEENS_22__unordered_map_hasherIS7_SA_NS_4hashIS7_EENS_8equal_toIS7_EELb1EEENS_21__unordered_map_equalIS7_SA_SF_SD_Lb1EEENS5_ISA_EEE21__construct_node_hashIRKNS8_IKS7_S9_EEJEEENS_10unique_ptrINS_11__hash_nodeISA_PvEENS_22__hash_node_destructorINS5_IST_EEEEEEmOT_DpOT0_, symObjAddr: 0x4FF4, symBinAddr: 0x1000082FC, symSize: 0x148 }
  - { offsetInCU: 0x10533, offset: 0x10533, size: 0x8, addend: 0x0, symName: __ZNSt3__112__hash_tableINS_17__hash_value_typeINS_12basic_stringIcNS_11char_traitsIcEENS_9allocatorIcEEEENS_4pairIffEEEENS_22__unordered_map_hasherIS7_SA_NS_4hashIS7_EENS_8equal_toIS7_EELb1EEENS_21__unordered_map_equalIS7_SA_SF_SD_Lb1EEENS5_ISA_EEE4sizeB7v160006Ev, symObjAddr: 0x513C, symBinAddr: 0x100008444, symSize: 0x28 }
  - { offsetInCU: 0x10559, offset: 0x10559, size: 0x8, addend: 0x0, symName: __ZNSt3__112__hash_tableINS_17__hash_value_typeINS_12basic_stringIcNS_11char_traitsIcEENS_9allocatorIcEEEENS_4pairIffEEEENS_22__unordered_map_hasherIS7_SA_NS_4hashIS7_EENS_8equal_toIS7_EELb1EEENS_21__unordered_map_equalIS7_SA_SF_SD_Lb1EEENS5_ISA_EEE15max_load_factorB7v160006Ev, symObjAddr: 0x5164, symBinAddr: 0x10000846C, symSize: 0x28 }
  - { offsetInCU: 0x1057F, offset: 0x1057F, size: 0x8, addend: 0x0, symName: __ZNSt3__112__hash_tableINS_17__hash_value_typeINS_12basic_stringIcNS_11char_traitsIcEENS_9allocatorIcEEEENS_4pairIffEEEENS_22__unordered_map_hasherIS7_SA_NS_4hashIS7_EENS_8equal_toIS7_EELb1EEENS_21__unordered_map_equalIS7_SA_SF_SD_Lb1EEENS5_ISA_EEE15__rehash_uniqueB7v160006Em, symObjAddr: 0x518C, symBinAddr: 0x100008494, symSize: 0x2C }
  - { offsetInCU: 0x105B3, offset: 0x105B3, size: 0x8, addend: 0x0, symName: __Z4ceilB7v160006f, symObjAddr: 0x5234, symBinAddr: 0x10000853C, symSize: 0x18 }
  - { offsetInCU: 0x105E2, offset: 0x105E2, size: 0x8, addend: 0x0, symName: __ZNSt3__116__hash_node_baseIPNS_11__hash_nodeINS_17__hash_value_typeINS_12basic_stringIcNS_11char_traitsIcEENS_9allocatorIcEEEENS_4pairIffEEEEPvEEE5__ptrB7v160006Ev, symObjAddr: 0x524C, symBinAddr: 0x100008554, symSize: 0x24 }
  - { offsetInCU: 0x10608, offset: 0x10608, size: 0x8, addend: 0x0, symName: __ZNKSt3__110unique_ptrINS_11__hash_nodeINS_17__hash_value_typeINS_12basic_stringIcNS_11char_traitsIcEENS_9allocatorIcEEEENS_4pairIffEEEEPvEENS_22__hash_node_destructorINS6_ISD_EEEEEptB7v160006Ev, symObjAddr: 0x5270, symBinAddr: 0x100008578, symSize: 0x28 }
  - { offsetInCU: 0x1062E, offset: 0x1062E, size: 0x8, addend: 0x0, symName: __ZNKSt3__110unique_ptrINS_11__hash_nodeINS_17__hash_value_typeINS_12basic_stringIcNS_11char_traitsIcEENS_9allocatorIcEEEENS_4pairIffEEEEPvEENS_22__hash_node_destructorINS6_ISD_EEEEE3getB7v160006Ev, symObjAddr: 0x5298, symBinAddr: 0x1000085A0, symSize: 0x28 }
  - { offsetInCU: 0x10654, offset: 0x10654, size: 0x8, addend: 0x0, symName: __ZNSt3__110unique_ptrINS_11__hash_nodeINS_17__hash_value_typeINS_12basic_stringIcNS_11char_traitsIcEENS_9allocatorIcEEEENS_4pairIffEEEEPvEENS_22__hash_node_destructorINS6_ISD_EEEEE7releaseB7v160006Ev, symObjAddr: 0x52C0, symBinAddr: 0x1000085C8, symSize: 0x44 }
  - { offsetInCU: 0x10689, offset: 0x10689, size: 0x8, addend: 0x0, symName: __ZNSt3__110unique_ptrINS_11__hash_nodeINS_17__hash_value_typeINS_12basic_stringIcNS_11char_traitsIcEENS_9allocatorIcEEEENS_4pairIffEEEEPvEENS_22__hash_node_destructorINS6_ISD_EEEEED1B7v160006Ev, symObjAddr: 0x5304, symBinAddr: 0x10000860C, symSize: 0x2C }
  - { offsetInCU: 0x106B3, offset: 0x106B3, size: 0x8, addend: 0x0, symName: __ZNSt3__115__hash_iteratorIPNS_11__hash_nodeINS_17__hash_value_typeINS_12basic_stringIcNS_11char_traitsIcEENS_9allocatorIcEEEENS_4pairIffEEEEPvEEEC1B7v160006EPNS_16__hash_node_baseISE_EEPKv, symObjAddr: 0x5330, symBinAddr: 0x100008638, symSize: 0x3C }
  - { offsetInCU: 0x106FB, offset: 0x106FB, size: 0x8, addend: 0x0, symName: __ZNSt3__14pairINS_15__hash_iteratorIPNS_11__hash_nodeINS_17__hash_value_typeINS_12basic_stringIcNS_11char_traitsIcEENS_9allocatorIcEEEENS0_IffEEEEPvEEEEbEC1B7v160006ERKSF_RKb, symObjAddr: 0x536C, symBinAddr: 0x100008674, symSize: 0x3C }
  - { offsetInCU: 0x10741, offset: 0x10741, size: 0x8, addend: 0x0, symName: __ZNSt3__117__compressed_pairImNS_22__unordered_map_hasherINS_12basic_stringIcNS_11char_traitsIcEENS_9allocatorIcEEEENS_17__hash_value_typeIS7_NS_4pairIffEEEENS_4hashIS7_EENS_8equal_toIS7_EELb1EEEE6secondB7v160006Ev, symObjAddr: 0x53A8, symBinAddr: 0x1000086B0, symSize: 0x24 }
  - { offsetInCU: 0x10767, offset: 0x10767, size: 0x8, addend: 0x0, symName: __ZNSt3__122__compressed_pair_elemINS_22__unordered_map_hasherINS_12basic_stringIcNS_11char_traitsIcEENS_9allocatorIcEEEENS_17__hash_value_typeIS7_NS_4pairIffEEEENS_4hashIS7_EENS_8equal_toIS7_EELb1EEELi1ELb1EE5__getB7v160006Ev, symObjAddr: 0x53CC, symBinAddr: 0x1000086D4, symSize: 0x14 }
  - { offsetInCU: 0x1078D, offset: 0x1078D, size: 0x8, addend: 0x0, symName: __ZNKSt3__113__string_hashIcNS_9allocatorIcEEEclERKNS_12basic_stringIcNS_11char_traitsIcEES2_EE, symObjAddr: 0x53E0, symBinAddr: 0x1000086E8, symSize: 0x78 }
  - { offsetInCU: 0x107C2, offset: 0x107C2, size: 0x8, addend: 0x0, symName: __ZNSt3__121__murmur2_or_cityhashImLm64EEclEPKvm, symObjAddr: 0x5494, symBinAddr: 0x10000879C, symSize: 0x410 }
  - { offsetInCU: 0x1085D, offset: 0x1085D, size: 0x8, addend: 0x0, symName: __ZNSt3__121__murmur2_or_cityhashImLm64EE18__hash_len_0_to_16EPKcm, symObjAddr: 0x58A4, symBinAddr: 0x100008BAC, symSize: 0x1C0 }
  - { offsetInCU: 0x10939, offset: 0x10939, size: 0x8, addend: 0x0, symName: __ZNSt3__121__murmur2_or_cityhashImLm64EE19__hash_len_17_to_32EPKcm, symObjAddr: 0x5A64, symBinAddr: 0x100008D6C, symSize: 0x130 }
  - { offsetInCU: 0x109A2, offset: 0x109A2, size: 0x8, addend: 0x0, symName: __ZNSt3__121__murmur2_or_cityhashImLm64EE19__hash_len_33_to_64EPKcm, symObjAddr: 0x5B94, symBinAddr: 0x100008E9C, symSize: 0x2B8 }
  - { offsetInCU: 0x10A54, offset: 0x10A54, size: 0x8, addend: 0x0, symName: __ZNSt3__121__murmur2_or_cityhashImLm64EE13__hash_len_16Emm, symObjAddr: 0x5E6C, symBinAddr: 0x100009174, symSize: 0x80 }
  - { offsetInCU: 0x10AAF, offset: 0x10AAF, size: 0x8, addend: 0x0, symName: __ZNSt3__121__murmur2_or_cityhashImLm64EE29__weak_hash_len_32_with_seedsEPKcmm, symObjAddr: 0x5EEC, symBinAddr: 0x1000091F4, symSize: 0x88 }
  - { offsetInCU: 0x10AEE, offset: 0x10AEE, size: 0x8, addend: 0x0, symName: __ZNSt3__121__murmur2_or_cityhashImLm64EE8__rotateEmi, symObjAddr: 0x5F74, symBinAddr: 0x10000927C, symSize: 0x64 }
  - { offsetInCU: 0x10B1F, offset: 0x10B1F, size: 0x8, addend: 0x0, symName: __ZNSt3__14pairImmEaSB7v160006ERKS1_, symObjAddr: 0x5FD8, symBinAddr: 0x1000092E0, symSize: 0x30 }
  - { offsetInCU: 0x10B53, offset: 0x10B53, size: 0x8, addend: 0x0, symName: __ZNSt3__121__murmur2_or_cityhashImLm64EE11__shift_mixEm, symObjAddr: 0x6044, symBinAddr: 0x10000934C, symSize: 0x1C }
  - { offsetInCU: 0x10B76, offset: 0x10B76, size: 0x8, addend: 0x0, symName: __ZNSt3__121__murmur2_or_cityhashImLm64EE22__rotate_by_at_least_1Emi, symObjAddr: 0x6060, symBinAddr: 0x100009368, symSize: 0x38 }
  - { offsetInCU: 0x10BA7, offset: 0x10BA7, size: 0x8, addend: 0x0, symName: __ZNSt3__121__murmur2_or_cityhashImLm64EE29__weak_hash_len_32_with_seedsEmmmmmm, symObjAddr: 0x60B8, symBinAddr: 0x1000093C0, symSize: 0xD8 }
  - { offsetInCU: 0x10C1E, offset: 0x10C1E, size: 0x8, addend: 0x0, symName: __ZNSt3__14pairImmEC1B7v160006ERKmS3_, symObjAddr: 0x6190, symBinAddr: 0x100009498, symSize: 0x3C }
  - { offsetInCU: 0x10C64, offset: 0x10C64, size: 0x8, addend: 0x0, symName: __ZNSt3__14pairImmEC2B7v160006ERKmS3_, symObjAddr: 0x61CC, symBinAddr: 0x1000094D4, symSize: 0x34 }
  - { offsetInCU: 0x10CAA, offset: 0x10CAA, size: 0x8, addend: 0x0, symName: __ZNKSt3__110unique_ptrIA_PNS_16__hash_node_baseIPNS_11__hash_nodeINS_17__hash_value_typeINS_12basic_stringIcNS_11char_traitsIcEENS_9allocatorIcEEEENS_4pairIffEEEEPvEEEENS_25__bucket_list_deallocatorINS7_ISH_EEEEE11get_deleterB7v160006Ev, symObjAddr: 0x6200, symBinAddr: 0x100009508, symSize: 0x24 }
  - { offsetInCU: 0x10CD0, offset: 0x10CD0, size: 0x8, addend: 0x0, symName: __ZNKSt3__125__bucket_list_deallocatorINS_9allocatorIPNS_16__hash_node_baseIPNS_11__hash_nodeINS_17__hash_value_typeINS_12basic_stringIcNS_11char_traitsIcEENS1_IcEEEENS_4pairIffEEEEPvEEEEEEE4sizeB7v160006Ev, symObjAddr: 0x6224, symBinAddr: 0x10000952C, symSize: 0x28 }
  - { offsetInCU: 0x10CF6, offset: 0x10CF6, size: 0x8, addend: 0x0, symName: __ZNKSt3__117__compressed_pairIPPNS_16__hash_node_baseIPNS_11__hash_nodeINS_17__hash_value_typeINS_12basic_stringIcNS_11char_traitsIcEENS_9allocatorIcEEEENS_4pairIffEEEEPvEEEENS_25__bucket_list_deallocatorINS7_ISH_EEEEE6secondB7v160006Ev, symObjAddr: 0x624C, symBinAddr: 0x100009554, symSize: 0x28 }
  - { offsetInCU: 0x10D1C, offset: 0x10D1C, size: 0x8, addend: 0x0, symName: __ZNKSt3__122__compressed_pair_elemINS_25__bucket_list_deallocatorINS_9allocatorIPNS_16__hash_node_baseIPNS_11__hash_nodeINS_17__hash_value_typeINS_12basic_stringIcNS_11char_traitsIcEENS2_IcEEEENS_4pairIffEEEEPvEEEEEEEELi1ELb0EE5__getB7v160006Ev, symObjAddr: 0x6274, symBinAddr: 0x10000957C, symSize: 0x14 }
  - { offsetInCU: 0x10D42, offset: 0x10D42, size: 0x8, addend: 0x0, symName: __ZNKSt3__117__compressed_pairImNS_9allocatorIPNS_16__hash_node_baseIPNS_11__hash_nodeINS_17__hash_value_typeINS_12basic_stringIcNS_11char_traitsIcEENS1_IcEEEENS_4pairIffEEEEPvEEEEEEE5firstB7v160006Ev, symObjAddr: 0x6288, symBinAddr: 0x100009590, symSize: 0x24 }
  - { offsetInCU: 0x10D68, offset: 0x10D68, size: 0x8, addend: 0x0, symName: __ZNKSt3__122__compressed_pair_elemImLi0ELb0EE5__getB7v160006Ev, symObjAddr: 0x62AC, symBinAddr: 0x1000095B4, symSize: 0x14 }
  - { offsetInCU: 0x10D8E, offset: 0x10D8E, size: 0x8, addend: 0x0, symName: __ZNKSt3__117__compressed_pairIPPNS_16__hash_node_baseIPNS_11__hash_nodeINS_17__hash_value_typeINS_12basic_stringIcNS_11char_traitsIcEENS_9allocatorIcEEEENS_4pairIffEEEEPvEEEENS_25__bucket_list_deallocatorINS7_ISH_EEEEE5firstB7v160006Ev, symObjAddr: 0x62C0, symBinAddr: 0x1000095C8, symSize: 0x24 }
  - { offsetInCU: 0x10DB4, offset: 0x10DB4, size: 0x8, addend: 0x0, symName: __ZNKSt3__122__compressed_pair_elemIPPNS_16__hash_node_baseIPNS_11__hash_nodeINS_17__hash_value_typeINS_12basic_stringIcNS_11char_traitsIcEENS_9allocatorIcEEEENS_4pairIffEEEEPvEEEELi0ELb0EE5__getB7v160006Ev, symObjAddr: 0x62E4, symBinAddr: 0x1000095EC, symSize: 0x14 }
  - { offsetInCU: 0x10DDA, offset: 0x10DDA, size: 0x8, addend: 0x0, symName: __ZNSt3__117__compressed_pairIfNS_21__unordered_map_equalINS_12basic_stringIcNS_11char_traitsIcEENS_9allocatorIcEEEENS_17__hash_value_typeIS7_NS_4pairIffEEEENS_8equal_toIS7_EENS_4hashIS7_EELb1EEEE6secondB7v160006Ev, symObjAddr: 0x62F8, symBinAddr: 0x100009600, symSize: 0x24 }
  - { offsetInCU: 0x10E00, offset: 0x10E00, size: 0x8, addend: 0x0, symName: __ZNSt3__122__compressed_pair_elemINS_21__unordered_map_equalINS_12basic_stringIcNS_11char_traitsIcEENS_9allocatorIcEEEENS_17__hash_value_typeIS7_NS_4pairIffEEEENS_8equal_toIS7_EENS_4hashIS7_EELb1EEELi1ELb1EE5__getB7v160006Ev, symObjAddr: 0x631C, symBinAddr: 0x100009624, symSize: 0x14 }
  - { offsetInCU: 0x10E26, offset: 0x10E26, size: 0x8, addend: 0x0, symName: __ZNKSt3__18equal_toINS_12basic_stringIcNS_11char_traitsIcEENS_9allocatorIcEEEEEclB7v160006ERKS6_S9_, symObjAddr: 0x6330, symBinAddr: 0x100009638, symSize: 0x34 }
  - { offsetInCU: 0x10E6A, offset: 0x10E6A, size: 0x8, addend: 0x0, symName: __ZNKSt3__117__hash_value_typeINS_12basic_stringIcNS_11char_traitsIcEENS_9allocatorIcEEEENS_4pairIffEEE11__get_valueB7v160006Ev, symObjAddr: 0x6364, symBinAddr: 0x10000966C, symSize: 0x14 }
  - { offsetInCU: 0x10E90, offset: 0x10E90, size: 0x8, addend: 0x0, symName: __ZNSt3__111char_traitsIcE7compareEPKcS3_m, symObjAddr: 0x64C0, symBinAddr: 0x1000097C8, symSize: 0x80 }
  - { offsetInCU: 0x10ECF, offset: 0x10ECF, size: 0x8, addend: 0x0, symName: __ZNSt3__116allocator_traitsINS_9allocatorINS_11__hash_nodeINS_17__hash_value_typeINS_12basic_stringIcNS_11char_traitsIcEENS1_IcEEEENS_4pairIffEEEEPvEEEEE8allocateB7v160006ERSE_m, symObjAddr: 0x6574, symBinAddr: 0x10000987C, symSize: 0x2C }
  - { offsetInCU: 0x10F02, offset: 0x10F02, size: 0x8, addend: 0x0, symName: __ZNSt3__122__hash_node_destructorINS_9allocatorINS_11__hash_nodeINS_17__hash_value_typeINS_12basic_stringIcNS_11char_traitsIcEENS1_IcEEEENS_4pairIffEEEEPvEEEEEC1B7v160006ERSE_b, symObjAddr: 0x65A0, symBinAddr: 0x1000098A8, symSize: 0x48 }
  - { offsetInCU: 0x10F4F, offset: 0x10F4F, size: 0x8, addend: 0x0, symName: __ZNSt3__110unique_ptrINS_11__hash_nodeINS_17__hash_value_typeINS_12basic_stringIcNS_11char_traitsIcEENS_9allocatorIcEEEENS_4pairIffEEEEPvEENS_22__hash_node_destructorINS6_ISD_EEEEEC1B7v160006ILb1EvEEPSD_NS_16__dependent_typeINS_27__unique_ptr_deleter_sfinaeISG_EEXT_EE20__good_rval_ref_typeE, symObjAddr: 0x65E8, symBinAddr: 0x1000098F0, symSize: 0x3C }
  - { offsetInCU: 0x10FA0, offset: 0x10FA0, size: 0x8, addend: 0x0, symName: __ZNSt3__116allocator_traitsINS_9allocatorINS_11__hash_nodeINS_17__hash_value_typeINS_12basic_stringIcNS_11char_traitsIcEENS1_IcEEEENS_4pairIffEEEEPvEEEEE9constructB7v160006INS9_IKS8_SA_EEJRKSI_EvEEvRSE_PT_DpOT0_, symObjAddr: 0x6624, symBinAddr: 0x10000992C, symSize: 0x34 }
  - { offsetInCU: 0x10FF7, offset: 0x10FF7, size: 0x8, addend: 0x0, symName: __ZNSt3__110unique_ptrINS_11__hash_nodeINS_17__hash_value_typeINS_12basic_stringIcNS_11char_traitsIcEENS_9allocatorIcEEEENS_4pairIffEEEEPvEENS_22__hash_node_destructorINS6_ISD_EEEEE11get_deleterB7v160006Ev, symObjAddr: 0x6658, symBinAddr: 0x100009960, symSize: 0x24 }
  - { offsetInCU: 0x1101D, offset: 0x1101D, size: 0x8, addend: 0x0, symName: __ZNSt3__19allocatorINS_11__hash_nodeINS_17__hash_value_typeINS_12basic_stringIcNS_11char_traitsIcEENS0_IcEEEENS_4pairIffEEEEPvEEE8allocateB7v160006Em, symObjAddr: 0x667C, symBinAddr: 0x100009984, symSize: 0x8C }
  - { offsetInCU: 0x1105B, offset: 0x1105B, size: 0x8, addend: 0x0, symName: __ZNSt3__116allocator_traitsINS_9allocatorINS_11__hash_nodeINS_17__hash_value_typeINS_12basic_stringIcNS_11char_traitsIcEENS1_IcEEEENS_4pairIffEEEEPvEEEEE8max_sizeB7v160006ISE_vEEmRKSE_, symObjAddr: 0x6708, symBinAddr: 0x100009A10, symSize: 0x24 }
  - { offsetInCU: 0x11089, offset: 0x11089, size: 0x8, addend: 0x0, symName: __ZNKSt3__19allocatorINS_11__hash_nodeINS_17__hash_value_typeINS_12basic_stringIcNS_11char_traitsIcEENS0_IcEEEENS_4pairIffEEEEPvEEE8max_sizeB7v160006Ev, symObjAddr: 0x672C, symBinAddr: 0x100009A34, symSize: 0x18 }
  - { offsetInCU: 0x110AF, offset: 0x110AF, size: 0x8, addend: 0x0, symName: __ZNSt3__122__hash_node_destructorINS_9allocatorINS_11__hash_nodeINS_17__hash_value_typeINS_12basic_stringIcNS_11char_traitsIcEENS1_IcEEEENS_4pairIffEEEEPvEEEEEC2B7v160006ERSE_b, symObjAddr: 0x6744, symBinAddr: 0x100009A4C, symSize: 0x38 }
  - { offsetInCU: 0x110F7, offset: 0x110F7, size: 0x8, addend: 0x0, symName: __ZNSt3__110unique_ptrINS_11__hash_nodeINS_17__hash_value_typeINS_12basic_stringIcNS_11char_traitsIcEENS_9allocatorIcEEEENS_4pairIffEEEEPvEENS_22__hash_node_destructorINS6_ISD_EEEEEC2B7v160006ILb1EvEEPSD_NS_16__dependent_typeINS_27__unique_ptr_deleter_sfinaeISG_EEXT_EE20__good_rval_ref_typeE, symObjAddr: 0x677C, symBinAddr: 0x100009A84, symSize: 0x5C }
  - { offsetInCU: 0x11148, offset: 0x11148, size: 0x8, addend: 0x0, symName: __ZNSt3__117__compressed_pairIPNS_11__hash_nodeINS_17__hash_value_typeINS_12basic_stringIcNS_11char_traitsIcEENS_9allocatorIcEEEENS_4pairIffEEEEPvEENS_22__hash_node_destructorINS6_ISD_EEEEEC1B7v160006IRSE_SH_EEOT_OT0_, symObjAddr: 0x67D8, symBinAddr: 0x100009AE0, symSize: 0x3C }
  - { offsetInCU: 0x111A0, offset: 0x111A0, size: 0x8, addend: 0x0, symName: __ZNSt3__117__compressed_pairIPNS_11__hash_nodeINS_17__hash_value_typeINS_12basic_stringIcNS_11char_traitsIcEENS_9allocatorIcEEEENS_4pairIffEEEEPvEENS_22__hash_node_destructorINS6_ISD_EEEEEC2B7v160006IRSE_SH_EEOT_OT0_, symObjAddr: 0x6814, symBinAddr: 0x100009B1C, symSize: 0x48 }
  - { offsetInCU: 0x111F8, offset: 0x111F8, size: 0x8, addend: 0x0, symName: __ZNSt3__122__compressed_pair_elemIPNS_11__hash_nodeINS_17__hash_value_typeINS_12basic_stringIcNS_11char_traitsIcEENS_9allocatorIcEEEENS_4pairIffEEEEPvEELi0ELb0EEC2B7v160006IRSE_vEEOT_, symObjAddr: 0x685C, symBinAddr: 0x100009B64, symSize: 0x24 }
  - { offsetInCU: 0x1123A, offset: 0x1123A, size: 0x8, addend: 0x0, symName: __ZNSt3__122__compressed_pair_elemINS_22__hash_node_destructorINS_9allocatorINS_11__hash_nodeINS_17__hash_value_typeINS_12basic_stringIcNS_11char_traitsIcEENS2_IcEEEENS_4pairIffEEEEPvEEEEEELi1ELb0EEC2B7v160006ISG_vEEOT_, symObjAddr: 0x6880, symBinAddr: 0x100009B88, symSize: 0x24 }
  - { offsetInCU: 0x1127C, offset: 0x1127C, size: 0x8, addend: 0x0, symName: __ZNSt3__19allocatorINS_11__hash_nodeINS_17__hash_value_typeINS_12basic_stringIcNS_11char_traitsIcEENS0_IcEEEENS_4pairIffEEEEPvEEE9constructB7v160006INS8_IKS7_S9_EEJRKSG_EEEvPT_DpOT0_, symObjAddr: 0x68A4, symBinAddr: 0x100009BAC, symSize: 0x30 }
  - { offsetInCU: 0x112D2, offset: 0x112D2, size: 0x8, addend: 0x0, symName: __ZNSt3__14pairIKNS_12basic_stringIcNS_11char_traitsIcEENS_9allocatorIcEEEENS0_IffEEEC1ERKS9_, symObjAddr: 0x68D4, symBinAddr: 0x100009BDC, symSize: 0x34 }
  - { offsetInCU: 0x11307, offset: 0x11307, size: 0x8, addend: 0x0, symName: __ZNSt3__14pairIKNS_12basic_stringIcNS_11char_traitsIcEENS_9allocatorIcEEEENS0_IffEEEC2ERKS9_, symObjAddr: 0x6908, symBinAddr: 0x100009C10, symSize: 0x40 }
  - { offsetInCU: 0x1133C, offset: 0x1133C, size: 0x8, addend: 0x0, symName: __ZNSt3__117__compressed_pairIPNS_11__hash_nodeINS_17__hash_value_typeINS_12basic_stringIcNS_11char_traitsIcEENS_9allocatorIcEEEENS_4pairIffEEEEPvEENS_22__hash_node_destructorINS6_ISD_EEEEE6secondB7v160006Ev, symObjAddr: 0x6948, symBinAddr: 0x100009C50, symSize: 0x28 }
  - { offsetInCU: 0x11362, offset: 0x11362, size: 0x8, addend: 0x0, symName: __ZNSt3__122__compressed_pair_elemINS_22__hash_node_destructorINS_9allocatorINS_11__hash_nodeINS_17__hash_value_typeINS_12basic_stringIcNS_11char_traitsIcEENS2_IcEEEENS_4pairIffEEEEPvEEEEEELi1ELb0EE5__getB7v160006Ev, symObjAddr: 0x6970, symBinAddr: 0x100009C78, symSize: 0x14 }
  - { offsetInCU: 0x11388, offset: 0x11388, size: 0x8, addend: 0x0, symName: __ZNSt3__117__compressed_pairImNS_22__unordered_map_hasherINS_12basic_stringIcNS_11char_traitsIcEENS_9allocatorIcEEEENS_17__hash_value_typeIS7_NS_4pairIffEEEENS_4hashIS7_EENS_8equal_toIS7_EELb1EEEE5firstB7v160006Ev, symObjAddr: 0x6984, symBinAddr: 0x100009C8C, symSize: 0x24 }
  - { offsetInCU: 0x113AE, offset: 0x113AE, size: 0x8, addend: 0x0, symName: __ZNSt3__117__compressed_pairIfNS_21__unordered_map_equalINS_12basic_stringIcNS_11char_traitsIcEENS_9allocatorIcEEEENS_17__hash_value_typeIS7_NS_4pairIffEEEENS_8equal_toIS7_EENS_4hashIS7_EELb1EEEE5firstB7v160006Ev, symObjAddr: 0x69A8, symBinAddr: 0x100009CB0, symSize: 0x24 }
  - { offsetInCU: 0x113D4, offset: 0x113D4, size: 0x8, addend: 0x0, symName: __ZNSt3__122__compressed_pair_elemIfLi0ELb0EE5__getB7v160006Ev, symObjAddr: 0x69CC, symBinAddr: 0x100009CD4, symSize: 0x14 }
  - { offsetInCU: 0x113FA, offset: 0x113FA, size: 0x8, addend: 0x0, symName: __ZNSt3__112__hash_tableINS_17__hash_value_typeINS_12basic_stringIcNS_11char_traitsIcEENS_9allocatorIcEEEENS_4pairIffEEEENS_22__unordered_map_hasherIS7_SA_NS_4hashIS7_EENS_8equal_toIS7_EELb1EEENS_21__unordered_map_equalIS7_SA_SF_SD_Lb1EEENS5_ISA_EEE8__rehashILb1EEEvm, symObjAddr: 0x69E0, symBinAddr: 0x100009CE8, symSize: 0x1A8 }
  - { offsetInCU: 0x1144A, offset: 0x1144A, size: 0x8, addend: 0x0, symName: __ZNSt3__112__hash_tableINS_17__hash_value_typeINS_12basic_stringIcNS_11char_traitsIcEENS_9allocatorIcEEEENS_4pairIffEEEENS_22__unordered_map_hasherIS7_SA_NS_4hashIS7_EENS_8equal_toIS7_EELb1EEENS_21__unordered_map_equalIS7_SA_SF_SD_Lb1EEENS5_ISA_EEE11__do_rehashILb1EEEvm, symObjAddr: 0x6B88, symBinAddr: 0x100009E90, symSize: 0x290 }
  - { offsetInCU: 0x11531, offset: 0x11531, size: 0x8, addend: 0x0, symName: __ZNSt3__110unique_ptrIA_PNS_16__hash_node_baseIPNS_11__hash_nodeINS_17__hash_value_typeINS_12basic_stringIcNS_11char_traitsIcEENS_9allocatorIcEEEENS_4pairIffEEEEPvEEEENS_25__bucket_list_deallocatorINS7_ISH_EEEEE11get_deleterB7v160006Ev, symObjAddr: 0x6E94, symBinAddr: 0x10000A19C, symSize: 0x24 }
  - { offsetInCU: 0x11557, offset: 0x11557, size: 0x8, addend: 0x0, symName: __ZNSt3__110unique_ptrIA_PNS_16__hash_node_baseIPNS_11__hash_nodeINS_17__hash_value_typeINS_12basic_stringIcNS_11char_traitsIcEENS_9allocatorIcEEEENS_4pairIffEEEEPvEEEENS_25__bucket_list_deallocatorINS7_ISH_EEEEE5resetB7v160006IPSH_EENS_9enable_ifIXsr28_CheckArrayPointerConversionIT_EE5valueEvE4typeESQ_, symObjAddr: 0x6EB8, symBinAddr: 0x10000A1C0, symSize: 0x78 }
  - { offsetInCU: 0x115A4, offset: 0x115A4, size: 0x8, addend: 0x0, symName: __ZNSt3__116allocator_traitsINS_9allocatorIPNS_16__hash_node_baseIPNS_11__hash_nodeINS_17__hash_value_typeINS_12basic_stringIcNS_11char_traitsIcEENS1_IcEEEENS_4pairIffEEEEPvEEEEEEE8allocateB7v160006ERSI_m, symObjAddr: 0x6F30, symBinAddr: 0x10000A238, symSize: 0x2C }
  - { offsetInCU: 0x115D7, offset: 0x115D7, size: 0x8, addend: 0x0, symName: __ZNSt3__19allocatorIPNS_16__hash_node_baseIPNS_11__hash_nodeINS_17__hash_value_typeINS_12basic_stringIcNS_11char_traitsIcEENS0_IcEEEENS_4pairIffEEEEPvEEEEE8allocateB7v160006Em, symObjAddr: 0x6F5C, symBinAddr: 0x10000A264, symSize: 0x84 }
  - { offsetInCU: 0x11615, offset: 0x11615, size: 0x8, addend: 0x0, symName: __ZNSt3__116allocator_traitsINS_9allocatorIPNS_16__hash_node_baseIPNS_11__hash_nodeINS_17__hash_value_typeINS_12basic_stringIcNS_11char_traitsIcEENS1_IcEEEENS_4pairIffEEEEPvEEEEEEE8max_sizeB7v160006ISI_vEEmRKSI_, symObjAddr: 0x6FE0, symBinAddr: 0x10000A2E8, symSize: 0x24 }
  - { offsetInCU: 0x11643, offset: 0x11643, size: 0x8, addend: 0x0, symName: __ZNKSt3__19allocatorIPNS_16__hash_node_baseIPNS_11__hash_nodeINS_17__hash_value_typeINS_12basic_stringIcNS_11char_traitsIcEENS0_IcEEEENS_4pairIffEEEEPvEEEEE8max_sizeB7v160006Ev, symObjAddr: 0x7004, symBinAddr: 0x10000A30C, symSize: 0x14 }
  - { offsetInCU: 0x11673, offset: 0x11673, size: 0x8, addend: 0x0, symName: __ZNKSt3__16__lessImmEclB7v160006ERKmS3_, symObjAddr: 0x7088, symBinAddr: 0x10000A390, symSize: 0x34 }
  - { offsetInCU: 0x116B5, offset: 0x116B5, size: 0x8, addend: 0x0, symName: __ZNKSt3__117__compressed_pairIPNS_11__hash_nodeINS_17__hash_value_typeINS_12basic_stringIcNS_11char_traitsIcEENS_9allocatorIcEEEENS_4pairIffEEEEPvEENS_22__hash_node_destructorINS6_ISD_EEEEE5firstB7v160006Ev, symObjAddr: 0x70BC, symBinAddr: 0x10000A3C4, symSize: 0x24 }
  - { offsetInCU: 0x116DB, offset: 0x116DB, size: 0x8, addend: 0x0, symName: __ZNKSt3__122__compressed_pair_elemIPNS_11__hash_nodeINS_17__hash_value_typeINS_12basic_stringIcNS_11char_traitsIcEENS_9allocatorIcEEEENS_4pairIffEEEEPvEELi0ELb0EE5__getB7v160006Ev, symObjAddr: 0x70E0, symBinAddr: 0x10000A3E8, symSize: 0x14 }
  - { offsetInCU: 0x11701, offset: 0x11701, size: 0x8, addend: 0x0, symName: __ZNSt3__117__compressed_pairIPNS_11__hash_nodeINS_17__hash_value_typeINS_12basic_stringIcNS_11char_traitsIcEENS_9allocatorIcEEEENS_4pairIffEEEEPvEENS_22__hash_node_destructorINS6_ISD_EEEEE5firstB7v160006Ev, symObjAddr: 0x70F4, symBinAddr: 0x10000A3FC, symSize: 0x24 }
  - { offsetInCU: 0x11727, offset: 0x11727, size: 0x8, addend: 0x0, symName: __ZNSt3__122__compressed_pair_elemIPNS_11__hash_nodeINS_17__hash_value_typeINS_12basic_stringIcNS_11char_traitsIcEENS_9allocatorIcEEEENS_4pairIffEEEEPvEELi0ELb0EE5__getB7v160006Ev, symObjAddr: 0x7118, symBinAddr: 0x10000A420, symSize: 0x14 }
  - { offsetInCU: 0x1174D, offset: 0x1174D, size: 0x8, addend: 0x0, symName: __ZNSt3__110unique_ptrINS_11__hash_nodeINS_17__hash_value_typeINS_12basic_stringIcNS_11char_traitsIcEENS_9allocatorIcEEEENS_4pairIffEEEEPvEENS_22__hash_node_destructorINS6_ISD_EEEEED2B7v160006Ev, symObjAddr: 0x712C, symBinAddr: 0x10000A434, symSize: 0x30 }
  - { offsetInCU: 0x11777, offset: 0x11777, size: 0x8, addend: 0x0, symName: __ZNSt3__110unique_ptrINS_11__hash_nodeINS_17__hash_value_typeINS_12basic_stringIcNS_11char_traitsIcEENS_9allocatorIcEEEENS_4pairIffEEEEPvEENS_22__hash_node_destructorINS6_ISD_EEEEE5resetB7v160006EPSD_, symObjAddr: 0x715C, symBinAddr: 0x10000A464, symSize: 0x78 }
  - { offsetInCU: 0x117BB, offset: 0x117BB, size: 0x8, addend: 0x0, symName: __ZNSt3__122__hash_node_destructorINS_9allocatorINS_11__hash_nodeINS_17__hash_value_typeINS_12basic_stringIcNS_11char_traitsIcEENS1_IcEEEENS_4pairIffEEEEPvEEEEEclB7v160006EPSD_, symObjAddr: 0x71D4, symBinAddr: 0x10000A4DC, symSize: 0xAC }
  - { offsetInCU: 0x117F0, offset: 0x117F0, size: 0x8, addend: 0x0, symName: __ZNSt3__115__hash_iteratorIPNS_11__hash_nodeINS_17__hash_value_typeINS_12basic_stringIcNS_11char_traitsIcEENS_9allocatorIcEEEENS_4pairIffEEEEPvEEEC2B7v160006EPNS_16__hash_node_baseISE_EEPKv, symObjAddr: 0x7280, symBinAddr: 0x10000A588, symSize: 0x24 }
  - { offsetInCU: 0x11838, offset: 0x11838, size: 0x8, addend: 0x0, symName: __ZNSt3__14pairINS_15__hash_iteratorIPNS_11__hash_nodeINS_17__hash_value_typeINS_12basic_stringIcNS_11char_traitsIcEENS_9allocatorIcEEEENS0_IffEEEEPvEEEEbEC2B7v160006ERKSF_RKb, symObjAddr: 0x72A4, symBinAddr: 0x10000A5AC, symSize: 0x38 }
  - { offsetInCU: 0x1187E, offset: 0x1187E, size: 0x8, addend: 0x0, symName: __ZNSt3__14pairINS_19__hash_map_iteratorINS_15__hash_iteratorIPNS_11__hash_nodeINS_17__hash_value_typeINS_12basic_stringIcNS_11char_traitsIcEENS_9allocatorIcEEEENS0_IffEEEEPvEEEEEEbEC2B7v160006ISG_bEERKNS0_IT_T0_EE, symObjAddr: 0x72DC, symBinAddr: 0x10000A5E4, symSize: 0x50 }
  - { offsetInCU: 0x118C8, offset: 0x118C8, size: 0x8, addend: 0x0, symName: __ZNSt3__119__hash_map_iteratorINS_15__hash_iteratorIPNS_11__hash_nodeINS_17__hash_value_typeINS_12basic_stringIcNS_11char_traitsIcEENS_9allocatorIcEEEENS_4pairIffEEEEPvEEEEEC1B7v160006ESG_, symObjAddr: 0x732C, symBinAddr: 0x10000A634, symSize: 0x34 }
  - { offsetInCU: 0x11901, offset: 0x11901, size: 0x8, addend: 0x0, symName: __ZNSt3__119__hash_map_iteratorINS_15__hash_iteratorIPNS_11__hash_nodeINS_17__hash_value_typeINS_12basic_stringIcNS_11char_traitsIcEENS_9allocatorIcEEEENS_4pairIffEEEEPvEEEEEC2B7v160006ESG_, symObjAddr: 0x7360, symBinAddr: 0x10000A668, symSize: 0x20 }
  - { offsetInCU: 0x1193A, offset: 0x1193A, size: 0x8, addend: 0x0, symName: __ZNSt3__14pairIKNS_12basic_stringIcNS_11char_traitsIcEENS_9allocatorIcEEEENS0_IffEEEC2B7v160006IS6_S8_EERKNS0_IT_T0_EE, symObjAddr: 0x7380, symBinAddr: 0x10000A688, symSize: 0x40 }
  - { offsetInCU: 0x11984, offset: 0x11984, size: 0x8, addend: 0x0, symName: __ZNSt3__112__hash_tableINS_17__hash_value_typeINS_12basic_stringIcNS_11char_traitsIcEENS_9allocatorIcEEEENS_4pairIffEEEENS_22__unordered_map_hasherIS7_SA_NS_4hashIS7_EENS_8equal_toIS7_EELb1EEENS_21__unordered_map_equalIS7_SA_SF_SD_Lb1EEENS5_ISA_EEE5beginEv, symObjAddr: 0x73C0, symBinAddr: 0x10000A6C8, symSize: 0x40 }
  - { offsetInCU: 0x119AC, offset: 0x119AC, size: 0x8, addend: 0x0, symName: __ZNSt3__112__hash_tableINS_17__hash_value_typeINS_12basic_stringIcNS_11char_traitsIcEENS_9allocatorIcEEEENS_4pairIffEEEENS_22__unordered_map_hasherIS7_SA_NS_4hashIS7_EENS_8equal_toIS7_EELb1EEENS_21__unordered_map_equalIS7_SA_SF_SD_Lb1EEENS5_ISA_EEE3endEv, symObjAddr: 0x7400, symBinAddr: 0x10000A708, symSize: 0x30 }
  - { offsetInCU: 0x119D4, offset: 0x119D4, size: 0x8, addend: 0x0, symName: __ZNSt3__115__hash_iteratorIPNS_11__hash_nodeINS_17__hash_value_typeINS_12basic_stringIcNS_11char_traitsIcEENS_9allocatorIcEEEENS_4pairIffEEEEPvEEEppB7v160006Ev, symObjAddr: 0x7494, symBinAddr: 0x10000A79C, symSize: 0x20 }
  - { offsetInCU: 0x119FA, offset: 0x119FA, size: 0x8, addend: 0x0, symName: __ZNKSt3__115__hash_iteratorIPNS_11__hash_nodeINS_17__hash_value_typeINS_12basic_stringIcNS_11char_traitsIcEENS_9allocatorIcEEEENS_4pairIffEEEEPvEEEptB7v160006Ev, symObjAddr: 0x74B4, symBinAddr: 0x10000A7BC, symSize: 0x30 }
  - { offsetInCU: 0x11A20, offset: 0x11A20, size: 0x8, addend: 0x0, symName: __ZNSt3__114pointer_traitsIPNS_17__hash_value_typeINS_12basic_stringIcNS_11char_traitsIcEENS_9allocatorIcEEEENS_4pairIffEEEEE10pointer_toB7v160006ERSA_, symObjAddr: 0x74E4, symBinAddr: 0x10000A7EC, symSize: 0x14 }
  - { offsetInCU: 0x11A43, offset: 0x11A43, size: 0x8, addend: 0x0, symName: __ZNSt3__114numeric_limitsIlE3maxB7v160006Ev, symObjAddr: 0x74F8, symBinAddr: 0x10000A800, symSize: 0x14 }
  - { offsetInCU: 0x11A57, offset: 0x11A57, size: 0x8, addend: 0x0, symName: __ZNSt3__115basic_streambufIcNS_11char_traitsIcEEE5sgetcB7v160006Ev, symObjAddr: 0x750C, symBinAddr: 0x10000A814, symSize: 0x70 }
  - { offsetInCU: 0x11A7D, offset: 0x11A7D, size: 0x8, addend: 0x0, symName: __ZNKSt3__15ctypeIcE2isB7v160006Ejc, symObjAddr: 0x757C, symBinAddr: 0x10000A884, symSize: 0x7C }
  - { offsetInCU: 0x11AC1, offset: 0x11AC1, size: 0x8, addend: 0x0, symName: __ZNSt3__123__libcpp_numeric_limitsIlLb1EE3maxB7v160006Ev, symObjAddr: 0x75F8, symBinAddr: 0x10000A900, symSize: 0x8 }
  - { offsetInCU: 0x11AD4, offset: 0x11AD4, size: 0x8, addend: 0x0, symName: __Z7isasciii, symObjAddr: 0x7600, symBinAddr: 0x10000A908, symSize: 0x24 }
  - { offsetInCU: 0x11B01, offset: 0x11B01, size: 0x8, addend: 0x0, symName: __ZNSt3__112__hash_tableINS_17__hash_value_typeINS_12basic_stringIcNS_11char_traitsIcEENS_9allocatorIcEEEENS_4pairIffEEEENS_22__unordered_map_hasherIS7_SA_NS_4hashIS7_EENS_8equal_toIS7_EELb1EEENS_21__unordered_map_equalIS7_SA_SF_SD_Lb1EEENS5_ISA_EEE4findIS7_EENS_15__hash_iteratorIPNS_11__hash_nodeISA_PvEEEERKT_, symObjAddr: 0x7624, symBinAddr: 0x10000A92C, symSize: 0x1B4 }
  - { offsetInCU: 0x11B8C, offset: 0x11B8C, size: 0x8, addend: 0x0, symName: __ZNSt3__114pointer_traitsIPNS_4pairIKNS_12basic_stringIcNS_11char_traitsIcEENS_9allocatorIcEEEENS1_IffEEEEE10pointer_toB7v160006ERSA_, symObjAddr: 0x77D8, symBinAddr: 0x10000AAE0, symSize: 0x14 }
  - { offsetInCU: 0x11BAF, offset: 0x11BAF, size: 0x8, addend: 0x0, symName: __ZNSt3__112__hash_tableINS_17__hash_value_typeINS_12basic_stringIcNS_11char_traitsIcEENS_9allocatorIcEEEENS_4pairIffEEEENS_22__unordered_map_hasherIS7_SA_NS_4hashIS7_EENS_8equal_toIS7_EELb1EEENS_21__unordered_map_equalIS7_SA_SF_SD_Lb1EEENS5_ISA_EEE5clearEv, symObjAddr: 0x77EC, symBinAddr: 0x10000AAF4, symSize: 0xCC }
  - { offsetInCU: 0x11C13, offset: 0x11C13, size: 0x8, addend: 0x0, symName: __ZNKSt3__112__hash_tableINS_17__hash_value_typeINS_12basic_stringIcNS_11char_traitsIcEENS_9allocatorIcEEEENS_4pairIffEEEENS_22__unordered_map_hasherIS7_SA_NS_4hashIS7_EENS_8equal_toIS7_EELb1EEENS_21__unordered_map_equalIS7_SA_SF_SD_Lb1EEENS5_ISA_EEE13hash_functionB7v160006Ev, symObjAddr: 0x78B8, symBinAddr: 0x10000ABC0, symSize: 0x28 }
  - { offsetInCU: 0x11C39, offset: 0x11C39, size: 0x8, addend: 0x0, symName: __ZNKSt3__112__hash_tableINS_17__hash_value_typeINS_12basic_stringIcNS_11char_traitsIcEENS_9allocatorIcEEEENS_4pairIffEEEENS_22__unordered_map_hasherIS7_SA_NS_4hashIS7_EENS_8equal_toIS7_EELb1EEENS_21__unordered_map_equalIS7_SA_SF_SD_Lb1EEENS5_ISA_EEE6key_eqB7v160006Ev, symObjAddr: 0x78E0, symBinAddr: 0x10000ABE8, symSize: 0x28 }
  - { offsetInCU: 0x11C5F, offset: 0x11C5F, size: 0x8, addend: 0x0, symName: __ZNKSt3__112__hash_tableINS_17__hash_value_typeINS_12basic_stringIcNS_11char_traitsIcEENS_9allocatorIcEEEENS_4pairIffEEEENS_22__unordered_map_hasherIS7_SA_NS_4hashIS7_EENS_8equal_toIS7_EELb1EEENS_21__unordered_map_equalIS7_SA_SF_SD_Lb1EEENS5_ISA_EEE15max_load_factorB7v160006Ev, symObjAddr: 0x7908, symBinAddr: 0x10000AC10, symSize: 0x2C }
  - { offsetInCU: 0x11C85, offset: 0x11C85, size: 0x8, addend: 0x0, symName: __ZNSt3__112__hash_tableINS_17__hash_value_typeINS_12basic_stringIcNS_11char_traitsIcEENS_9allocatorIcEEEENS_4pairIffEEEENS_22__unordered_map_hasherIS7_SA_NS_4hashIS7_EENS_8equal_toIS7_EELb1EEENS_21__unordered_map_equalIS7_SA_SF_SD_Lb1EEENS5_ISA_EEE19__copy_assign_allocB7v160006ERKSK_, symObjAddr: 0x7934, symBinAddr: 0x10000AC3C, symSize: 0x2C }
  - { offsetInCU: 0x11CBA, offset: 0x11CBA, size: 0x8, addend: 0x0, symName: __ZNSt3__113unordered_mapINS_12basic_stringIcNS_11char_traitsIcEENS_9allocatorIcEEEENS_4pairIffEENS_4hashIS6_EENS_8equal_toIS6_EENS4_INS7_IKS6_S8_EEEEE6insertINS_25__hash_map_const_iteratorINS_21__hash_const_iteratorIPNS_11__hash_nodeINS_17__hash_value_typeIS6_S8_EEPvEEEEEEEEvT_SS_, symObjAddr: 0x7960, symBinAddr: 0x10000AC68, symSize: 0x70 }
  - { offsetInCU: 0x11D09, offset: 0x11D09, size: 0x8, addend: 0x0, symName: __ZNKSt3__113unordered_mapINS_12basic_stringIcNS_11char_traitsIcEENS_9allocatorIcEEEENS_4pairIffEENS_4hashIS6_EENS_8equal_toIS6_EENS4_INS7_IKS6_S8_EEEEE5beginB7v160006Ev, symObjAddr: 0x79D0, symBinAddr: 0x10000ACD8, symSize: 0x38 }
  - { offsetInCU: 0x11D2F, offset: 0x11D2F, size: 0x8, addend: 0x0, symName: __ZNKSt3__113unordered_mapINS_12basic_stringIcNS_11char_traitsIcEENS_9allocatorIcEEEENS_4pairIffEENS_4hashIS6_EENS_8equal_toIS6_EENS4_INS7_IKS6_S8_EEEEE3endB7v160006Ev, symObjAddr: 0x7A08, symBinAddr: 0x10000AD10, symSize: 0x38 }
  - { offsetInCU: 0x11D55, offset: 0x11D55, size: 0x8, addend: 0x0, symName: __ZNKSt3__117__compressed_pairImNS_22__unordered_map_hasherINS_12basic_stringIcNS_11char_traitsIcEENS_9allocatorIcEEEENS_17__hash_value_typeIS7_NS_4pairIffEEEENS_4hashIS7_EENS_8equal_toIS7_EELb1EEEE6secondB7v160006Ev, symObjAddr: 0x7A40, symBinAddr: 0x10000AD48, symSize: 0x24 }
  - { offsetInCU: 0x11D7B, offset: 0x11D7B, size: 0x8, addend: 0x0, symName: __ZNKSt3__122__compressed_pair_elemINS_22__unordered_map_hasherINS_12basic_stringIcNS_11char_traitsIcEENS_9allocatorIcEEEENS_17__hash_value_typeIS7_NS_4pairIffEEEENS_4hashIS7_EENS_8equal_toIS7_EELb1EEELi1ELb1EE5__getB7v160006Ev, symObjAddr: 0x7A64, symBinAddr: 0x10000AD6C, symSize: 0x14 }
  - { offsetInCU: 0x11DA1, offset: 0x11DA1, size: 0x8, addend: 0x0, symName: __ZNKSt3__117__compressed_pairIfNS_21__unordered_map_equalINS_12basic_stringIcNS_11char_traitsIcEENS_9allocatorIcEEEENS_17__hash_value_typeIS7_NS_4pairIffEEEENS_8equal_toIS7_EENS_4hashIS7_EELb1EEEE6secondB7v160006Ev, symObjAddr: 0x7A78, symBinAddr: 0x10000AD80, symSize: 0x24 }
  - { offsetInCU: 0x11DC7, offset: 0x11DC7, size: 0x8, addend: 0x0, symName: __ZNKSt3__122__compressed_pair_elemINS_21__unordered_map_equalINS_12basic_stringIcNS_11char_traitsIcEENS_9allocatorIcEEEENS_17__hash_value_typeIS7_NS_4pairIffEEEENS_8equal_toIS7_EENS_4hashIS7_EELb1EEELi1ELb1EE5__getB7v160006Ev, symObjAddr: 0x7A9C, symBinAddr: 0x10000ADA4, symSize: 0x14 }
  - { offsetInCU: 0x11DED, offset: 0x11DED, size: 0x8, addend: 0x0, symName: __ZNKSt3__117__compressed_pairIfNS_21__unordered_map_equalINS_12basic_stringIcNS_11char_traitsIcEENS_9allocatorIcEEEENS_17__hash_value_typeIS7_NS_4pairIffEEEENS_8equal_toIS7_EENS_4hashIS7_EELb1EEEE5firstB7v160006Ev, symObjAddr: 0x7AB0, symBinAddr: 0x10000ADB8, symSize: 0x24 }
  - { offsetInCU: 0x11E13, offset: 0x11E13, size: 0x8, addend: 0x0, symName: __ZNKSt3__122__compressed_pair_elemIfLi0ELb0EE5__getB7v160006Ev, symObjAddr: 0x7AD4, symBinAddr: 0x10000ADDC, symSize: 0x14 }
  - { offsetInCU: 0x11E39, offset: 0x11E39, size: 0x8, addend: 0x0, symName: __ZNSt3__112__hash_tableINS_17__hash_value_typeINS_12basic_stringIcNS_11char_traitsIcEENS_9allocatorIcEEEENS_4pairIffEEEENS_22__unordered_map_hasherIS7_SA_NS_4hashIS7_EENS_8equal_toIS7_EELb1EEENS_21__unordered_map_equalIS7_SA_SF_SD_Lb1EEENS5_ISA_EEE19__copy_assign_allocB7v160006ERKSK_NS_17integral_constantIbLb0EEE, symObjAddr: 0x7AE8, symBinAddr: 0x10000ADF0, symSize: 0x14 }
  - { offsetInCU: 0x11E77, offset: 0x11E77, size: 0x8, addend: 0x0, symName: __ZNKSt3__125__hash_map_const_iteratorINS_21__hash_const_iteratorIPNS_11__hash_nodeINS_17__hash_value_typeINS_12basic_stringIcNS_11char_traitsIcEENS_9allocatorIcEEEENS_4pairIffEEEEPvEEEEEdeB7v160006Ev, symObjAddr: 0x7B2C, symBinAddr: 0x10000AE34, symSize: 0x28 }
  - { offsetInCU: 0x11E9D, offset: 0x11E9D, size: 0x8, addend: 0x0, symName: __ZNSt3__125__hash_map_const_iteratorINS_21__hash_const_iteratorIPNS_11__hash_nodeINS_17__hash_value_typeINS_12basic_stringIcNS_11char_traitsIcEENS_9allocatorIcEEEENS_4pairIffEEEEPvEEEEEppB7v160006Ev, symObjAddr: 0x7B54, symBinAddr: 0x10000AE5C, symSize: 0x2C }
  - { offsetInCU: 0x11EC3, offset: 0x11EC3, size: 0x8, addend: 0x0, symName: __ZNKSt3__121__hash_const_iteratorIPNS_11__hash_nodeINS_17__hash_value_typeINS_12basic_stringIcNS_11char_traitsIcEENS_9allocatorIcEEEENS_4pairIffEEEEPvEEEptB7v160006Ev, symObjAddr: 0x7BE4, symBinAddr: 0x10000AEEC, symSize: 0x30 }
  - { offsetInCU: 0x11EE9, offset: 0x11EE9, size: 0x8, addend: 0x0, symName: __ZNSt3__114pointer_traitsIPKNS_17__hash_value_typeINS_12basic_stringIcNS_11char_traitsIcEENS_9allocatorIcEEEENS_4pairIffEEEEE10pointer_toB7v160006ERSB_, symObjAddr: 0x7C14, symBinAddr: 0x10000AF1C, symSize: 0x14 }
  - { offsetInCU: 0x11F0C, offset: 0x11F0C, size: 0x8, addend: 0x0, symName: __ZNSt3__121__hash_const_iteratorIPNS_11__hash_nodeINS_17__hash_value_typeINS_12basic_stringIcNS_11char_traitsIcEENS_9allocatorIcEEEENS_4pairIffEEEEPvEEEppB7v160006Ev, symObjAddr: 0x7C28, symBinAddr: 0x10000AF30, symSize: 0x20 }
  - { offsetInCU: 0x11F32, offset: 0x11F32, size: 0x8, addend: 0x0, symName: __ZNKSt3__112__hash_tableINS_17__hash_value_typeINS_12basic_stringIcNS_11char_traitsIcEENS_9allocatorIcEEEENS_4pairIffEEEENS_22__unordered_map_hasherIS7_SA_NS_4hashIS7_EENS_8equal_toIS7_EELb1EEENS_21__unordered_map_equalIS7_SA_SF_SD_Lb1EEENS5_ISA_EEE5beginEv, symObjAddr: 0x7C48, symBinAddr: 0x10000AF50, symSize: 0x40 }
  - { offsetInCU: 0x11F5A, offset: 0x11F5A, size: 0x8, addend: 0x0, symName: __ZNSt3__125__hash_map_const_iteratorINS_21__hash_const_iteratorIPNS_11__hash_nodeINS_17__hash_value_typeINS_12basic_stringIcNS_11char_traitsIcEENS_9allocatorIcEEEENS_4pairIffEEEEPvEEEEEC1B7v160006ESG_, symObjAddr: 0x7C88, symBinAddr: 0x10000AF90, symSize: 0x34 }
  - { offsetInCU: 0x11F93, offset: 0x11F93, size: 0x8, addend: 0x0, symName: __ZNKSt3__117__compressed_pairINS_16__hash_node_baseIPNS_11__hash_nodeINS_17__hash_value_typeINS_12basic_stringIcNS_11char_traitsIcEENS_9allocatorIcEEEENS_4pairIffEEEEPvEEEENS7_ISE_EEE5firstB7v160006Ev, symObjAddr: 0x7CBC, symBinAddr: 0x10000AFC4, symSize: 0x24 }
  - { offsetInCU: 0x11FB9, offset: 0x11FB9, size: 0x8, addend: 0x0, symName: __ZNSt3__121__hash_const_iteratorIPNS_11__hash_nodeINS_17__hash_value_typeINS_12basic_stringIcNS_11char_traitsIcEENS_9allocatorIcEEEENS_4pairIffEEEEPvEEEC1B7v160006EPNS_16__hash_node_baseISE_EEPKv, symObjAddr: 0x7CE0, symBinAddr: 0x10000AFE8, symSize: 0x3C }
  - { offsetInCU: 0x12001, offset: 0x12001, size: 0x8, addend: 0x0, symName: __ZNKSt3__122__compressed_pair_elemINS_16__hash_node_baseIPNS_11__hash_nodeINS_17__hash_value_typeINS_12basic_stringIcNS_11char_traitsIcEENS_9allocatorIcEEEENS_4pairIffEEEEPvEEEELi0ELb0EE5__getB7v160006Ev, symObjAddr: 0x7D1C, symBinAddr: 0x10000B024, symSize: 0x14 }
  - { offsetInCU: 0x12027, offset: 0x12027, size: 0x8, addend: 0x0, symName: __ZNSt3__121__hash_const_iteratorIPNS_11__hash_nodeINS_17__hash_value_typeINS_12basic_stringIcNS_11char_traitsIcEENS_9allocatorIcEEEENS_4pairIffEEEEPvEEEC2B7v160006EPNS_16__hash_node_baseISE_EEPKv, symObjAddr: 0x7D30, symBinAddr: 0x10000B038, symSize: 0x24 }
  - { offsetInCU: 0x1206F, offset: 0x1206F, size: 0x8, addend: 0x0, symName: __ZNSt3__125__hash_map_const_iteratorINS_21__hash_const_iteratorIPNS_11__hash_nodeINS_17__hash_value_typeINS_12basic_stringIcNS_11char_traitsIcEENS_9allocatorIcEEEENS_4pairIffEEEEPvEEEEEC2B7v160006ESG_, symObjAddr: 0x7D54, symBinAddr: 0x10000B05C, symSize: 0x20 }
  - { offsetInCU: 0x120A8, offset: 0x120A8, size: 0x8, addend: 0x0, symName: __ZNKSt3__112__hash_tableINS_17__hash_value_typeINS_12basic_stringIcNS_11char_traitsIcEENS_9allocatorIcEEEENS_4pairIffEEEENS_22__unordered_map_hasherIS7_SA_NS_4hashIS7_EENS_8equal_toIS7_EELb1EEENS_21__unordered_map_equalIS7_SA_SF_SD_Lb1EEENS5_ISA_EEE3endEv, symObjAddr: 0x7D74, symBinAddr: 0x10000B07C, symSize: 0x30 }
...
